
/Users/smv/Documents/Documents/UMN/2025-2026/EE1301/IoTLab3/p4extended/target/6.3.3/p2/p4extended.elf:     file format elf32-littlearm

Sections:
Idx Name          Size      VMA       LMA       File off  Algn
  0 .module_info  00000018  085fa000  085fa000  0000a000  2**0
                  CONTENTS, ALLOC, LOAD, READONLY, DATA
  1 .text         0000008c  085fa018  085fa018  0000a018  2**2
                  CONTENTS, ALLOC, LOAD, READONLY, CODE
  2 .dynalib      00000008  023fb248  085fa0a8  0000b248  2**3
                  CONTENTS, ALLOC, LOAD, READONLY, DATA
  3 .psram_text   00004da8  023fb250  085fa0b0  0000b250  2**3
                  CONTENTS, ALLOC, LOAD, CODE
  4 .data_alt     00000000  023ffff8  023ffff8  00020000  2**0
                  CONTENTS
  5 .bss_alt      00000000  023ffff8  023ffff8  00020000  2**0
                  CONTENTS
  6 .data         000001f4  1007ace8  085fee58  0001ace8  2**3
                  CONTENTS, ALLOC, LOAD, DATA
  7 .bss          00000118  1007aee0  1007aee0  0002aee0  2**3
                  ALLOC
  8 .secure_ram_text 00000000  1007d000  1007d000  00020000  2**0
                  CONTENTS
  9 .backup       00000004  1007b400  085ff04c  0001b400  2**2
                  CONTENTS, ALLOC, LOAD, DATA
 10 .module_info_suffix_align 00000f68  085ff050  085ff050  0001f050  2**0
                  ALLOC
 11 .module_info_product 00000006  085fffb8  085fffb8  0001f050  2**0
                  ALLOC
 12 .module_info_suffix 0000003e  085fffbe  085fffbe  0001ffbe  2**0
                  CONTENTS, ALLOC, LOAD, READONLY, DATA
 13 .module_info_crc 00000004  085ffffc  085ffffc  0001fffc  2**0
                  CONTENTS, ALLOC, LOAD, READONLY, DATA
 14 .debug_info   001b2418  00000000  00000000  00020000  2**0
                  CONTENTS, READONLY, DEBUGGING, OCTETS
 15 .debug_abbrev 00016f12  00000000  00000000  001d2418  2**0
                  CONTENTS, READONLY, DEBUGGING, OCTETS
 16 .debug_loc    0005d97b  00000000  00000000  001e932a  2**0
                  CONTENTS, READONLY, DEBUGGING, OCTETS
 17 .debug_aranges 00003810  00000000  00000000  00246ca5  2**0
                  CONTENTS, READONLY, DEBUGGING, OCTETS
 18 .debug_ranges 000106c8  00000000  00000000  0024a4b5  2**0
                  CONTENTS, READONLY, DEBUGGING, OCTETS
 19 .debug_macro  00048c8d  00000000  00000000  0025ab7d  2**0
                  CONTENTS, READONLY, DEBUGGING, OCTETS
 20 .debug_line   00052e1b  00000000  00000000  002a380a  2**0
                  CONTENTS, READONLY, DEBUGGING, OCTETS
 21 .debug_str    00136751  00000000  00000000  002f6625  2**0
                  CONTENTS, READONLY, DEBUGGING, OCTETS
 22 .debug_frame  0000a904  00000000  00000000  0042cd78  2**2
                  CONTENTS, READONLY, DEBUGGING, OCTETS

Disassembly of section .text:

085fa018 <module_user_pre_init>:
 * Initializes this user module. Returns the start of the heap.
 */
__attribute__((section(".xip.text"))) void* module_user_pre_init() {
    // NOTE: Must invoke APIs in ROM
    // Copy .data
    if ( (&link_global_data_start != &link_global_data_initial_values) && (link_global_data_size != 0))
 85fa018:	4813      	ldr	r0, [pc, #76]	; (85fa068 <module_user_pre_init+0x50>)
 85fa01a:	4914      	ldr	r1, [pc, #80]	; (85fa06c <module_user_pre_init+0x54>)
__attribute__((section(".xip.text"))) void* module_user_pre_init() {
 85fa01c:	b508      	push	{r3, lr}
    if ( (&link_global_data_start != &link_global_data_initial_values) && (link_global_data_size != 0))
 85fa01e:	4288      	cmp	r0, r1
 85fa020:	d005      	beq.n	85fa02e <module_user_pre_init+0x16>
 85fa022:	4a13      	ldr	r2, [pc, #76]	; (85fa070 <module_user_pre_init+0x58>)
 85fa024:	4282      	cmp	r2, r0
 85fa026:	d002      	beq.n	85fa02e <module_user_pre_init+0x16>
    {
        _memcpy(&link_global_data_start, &link_global_data_initial_values, link_global_data_size);
 85fa028:	4b12      	ldr	r3, [pc, #72]	; (85fa074 <module_user_pre_init+0x5c>)
 85fa02a:	1a12      	subs	r2, r2, r0
 85fa02c:	4798      	blx	r3
    }

    // Initialize .bss
    _memset(&link_bss_location, 0, link_bss_size );
 85fa02e:	4812      	ldr	r0, [pc, #72]	; (85fa078 <module_user_pre_init+0x60>)
 85fa030:	4a12      	ldr	r2, [pc, #72]	; (85fa07c <module_user_pre_init+0x64>)
 85fa032:	2100      	movs	r1, #0
 85fa034:	4b12      	ldr	r3, [pc, #72]	; (85fa080 <module_user_pre_init+0x68>)
 85fa036:	1a12      	subs	r2, r2, r0
 85fa038:	4798      	blx	r3

    // Copy .dynalib
    if ( (&link_dynalib_start != &link_dynalib_flash_start) && (link_dynalib_size != 0))
 85fa03a:	4812      	ldr	r0, [pc, #72]	; (85fa084 <module_user_pre_init+0x6c>)
 85fa03c:	4912      	ldr	r1, [pc, #72]	; (85fa088 <module_user_pre_init+0x70>)
 85fa03e:	4288      	cmp	r0, r1
 85fa040:	d005      	beq.n	85fa04e <module_user_pre_init+0x36>
 85fa042:	4a12      	ldr	r2, [pc, #72]	; (85fa08c <module_user_pre_init+0x74>)
 85fa044:	4282      	cmp	r2, r0
 85fa046:	d002      	beq.n	85fa04e <module_user_pre_init+0x36>
    {
        _memcpy(&link_dynalib_start, &link_dynalib_flash_start, link_dynalib_size);
 85fa048:	4b0a      	ldr	r3, [pc, #40]	; (85fa074 <module_user_pre_init+0x5c>)
 85fa04a:	1a12      	subs	r2, r2, r0
 85fa04c:	4798      	blx	r3
    }

    // Copy .psram_text
    if ( (&link_psram_code_start != &link_psram_code_flash_start) && (link_psram_code_size != 0))
 85fa04e:	4810      	ldr	r0, [pc, #64]	; (85fa090 <module_user_pre_init+0x78>)
 85fa050:	4910      	ldr	r1, [pc, #64]	; (85fa094 <module_user_pre_init+0x7c>)
 85fa052:	4288      	cmp	r0, r1
 85fa054:	d005      	beq.n	85fa062 <module_user_pre_init+0x4a>
 85fa056:	4a10      	ldr	r2, [pc, #64]	; (85fa098 <module_user_pre_init+0x80>)
 85fa058:	4282      	cmp	r2, r0
 85fa05a:	d002      	beq.n	85fa062 <module_user_pre_init+0x4a>
    {
        _memcpy(&link_psram_code_start, &link_psram_code_flash_start, link_psram_code_size);
 85fa05c:	4b05      	ldr	r3, [pc, #20]	; (85fa074 <module_user_pre_init+0x5c>)
 85fa05e:	1a12      	subs	r2, r2, r0
 85fa060:	4798      	blx	r3
    }

    return &link_global_data_start;
}
 85fa062:	4801      	ldr	r0, [pc, #4]	; (85fa068 <module_user_pre_init+0x50>)
 85fa064:	bd08      	pop	{r3, pc}
 85fa066:	bf00      	nop
 85fa068:	1007ace8 	.word	0x1007ace8
 85fa06c:	085fee58 	.word	0x085fee58
 85fa070:	1007aedc 	.word	0x1007aedc
 85fa074:	10110d2d 	.word	0x10110d2d
 85fa078:	1007aee0 	.word	0x1007aee0
 85fa07c:	1007aff8 	.word	0x1007aff8
 85fa080:	10110ea1 	.word	0x10110ea1
 85fa084:	023fb248 	.word	0x023fb248
 85fa088:	085fa0a8 	.word	0x085fa0a8
 85fa08c:	023fb250 	.word	0x023fb250
 85fa090:	023fb250 	.word	0x023fb250
 85fa094:	085fa0b0 	.word	0x085fa0b0
 85fa098:	023ffff8 	.word	0x023ffff8

085fa09c <dynalib_preinit>:
 85fa09c:	085fa019 00000000                       .._.....

Disassembly of section .psram_text:

023fb250 <__aeabi_drsub>:
 23fb250:	f081 4100 	eor.w	r1, r1, #2147483648	; 0x80000000
 23fb254:	e002      	b.n	23fb25c <__adddf3>
 23fb256:	bf00      	nop

023fb258 <__aeabi_dsub>:
 23fb258:	f083 4300 	eor.w	r3, r3, #2147483648	; 0x80000000

023fb25c <__adddf3>:
 23fb25c:	b530      	push	{r4, r5, lr}
 23fb25e:	ea4f 0441 	mov.w	r4, r1, lsl #1
 23fb262:	ea4f 0543 	mov.w	r5, r3, lsl #1
 23fb266:	ea94 0f05 	teq	r4, r5
 23fb26a:	bf08      	it	eq
 23fb26c:	ea90 0f02 	teqeq	r0, r2
 23fb270:	bf1f      	itttt	ne
 23fb272:	ea54 0c00 	orrsne.w	ip, r4, r0
 23fb276:	ea55 0c02 	orrsne.w	ip, r5, r2
 23fb27a:	ea7f 5c64 	mvnsne.w	ip, r4, asr #21
 23fb27e:	ea7f 5c65 	mvnsne.w	ip, r5, asr #21
 23fb282:	f000 80e2 	beq.w	23fb44a <__adddf3+0x1ee>
 23fb286:	ea4f 5454 	mov.w	r4, r4, lsr #21
 23fb28a:	ebd4 5555 	rsbs	r5, r4, r5, lsr #21
 23fb28e:	bfb8      	it	lt
 23fb290:	426d      	neglt	r5, r5
 23fb292:	dd0c      	ble.n	23fb2ae <__adddf3+0x52>
 23fb294:	442c      	add	r4, r5
 23fb296:	ea80 0202 	eor.w	r2, r0, r2
 23fb29a:	ea81 0303 	eor.w	r3, r1, r3
 23fb29e:	ea82 0000 	eor.w	r0, r2, r0
 23fb2a2:	ea83 0101 	eor.w	r1, r3, r1
 23fb2a6:	ea80 0202 	eor.w	r2, r0, r2
 23fb2aa:	ea81 0303 	eor.w	r3, r1, r3
 23fb2ae:	2d36      	cmp	r5, #54	; 0x36
 23fb2b0:	bf88      	it	hi
 23fb2b2:	bd30      	pophi	{r4, r5, pc}
 23fb2b4:	f011 4f00 	tst.w	r1, #2147483648	; 0x80000000
 23fb2b8:	ea4f 3101 	mov.w	r1, r1, lsl #12
 23fb2bc:	f44f 1c80 	mov.w	ip, #1048576	; 0x100000
 23fb2c0:	ea4c 3111 	orr.w	r1, ip, r1, lsr #12
 23fb2c4:	d002      	beq.n	23fb2cc <__adddf3+0x70>
 23fb2c6:	4240      	negs	r0, r0
 23fb2c8:	eb61 0141 	sbc.w	r1, r1, r1, lsl #1
 23fb2cc:	f013 4f00 	tst.w	r3, #2147483648	; 0x80000000
 23fb2d0:	ea4f 3303 	mov.w	r3, r3, lsl #12
 23fb2d4:	ea4c 3313 	orr.w	r3, ip, r3, lsr #12
 23fb2d8:	d002      	beq.n	23fb2e0 <__adddf3+0x84>
 23fb2da:	4252      	negs	r2, r2
 23fb2dc:	eb63 0343 	sbc.w	r3, r3, r3, lsl #1
 23fb2e0:	ea94 0f05 	teq	r4, r5
 23fb2e4:	f000 80a7 	beq.w	23fb436 <__adddf3+0x1da>
 23fb2e8:	f1a4 0401 	sub.w	r4, r4, #1
 23fb2ec:	f1d5 0e20 	rsbs	lr, r5, #32
 23fb2f0:	db0d      	blt.n	23fb30e <__adddf3+0xb2>
 23fb2f2:	fa02 fc0e 	lsl.w	ip, r2, lr
 23fb2f6:	fa22 f205 	lsr.w	r2, r2, r5
 23fb2fa:	1880      	adds	r0, r0, r2
 23fb2fc:	f141 0100 	adc.w	r1, r1, #0
 23fb300:	fa03 f20e 	lsl.w	r2, r3, lr
 23fb304:	1880      	adds	r0, r0, r2
 23fb306:	fa43 f305 	asr.w	r3, r3, r5
 23fb30a:	4159      	adcs	r1, r3
 23fb30c:	e00e      	b.n	23fb32c <__adddf3+0xd0>
 23fb30e:	f1a5 0520 	sub.w	r5, r5, #32
 23fb312:	f10e 0e20 	add.w	lr, lr, #32
 23fb316:	2a01      	cmp	r2, #1
 23fb318:	fa03 fc0e 	lsl.w	ip, r3, lr
 23fb31c:	bf28      	it	cs
 23fb31e:	f04c 0c02 	orrcs.w	ip, ip, #2
 23fb322:	fa43 f305 	asr.w	r3, r3, r5
 23fb326:	18c0      	adds	r0, r0, r3
 23fb328:	eb51 71e3 	adcs.w	r1, r1, r3, asr #31
 23fb32c:	f001 4500 	and.w	r5, r1, #2147483648	; 0x80000000
 23fb330:	d507      	bpl.n	23fb342 <__adddf3+0xe6>
 23fb332:	f04f 0e00 	mov.w	lr, #0
 23fb336:	f1dc 0c00 	rsbs	ip, ip, #0
 23fb33a:	eb7e 0000 	sbcs.w	r0, lr, r0
 23fb33e:	eb6e 0101 	sbc.w	r1, lr, r1
 23fb342:	f5b1 1f80 	cmp.w	r1, #1048576	; 0x100000
 23fb346:	d31b      	bcc.n	23fb380 <__adddf3+0x124>
 23fb348:	f5b1 1f00 	cmp.w	r1, #2097152	; 0x200000
 23fb34c:	d30c      	bcc.n	23fb368 <__adddf3+0x10c>
 23fb34e:	0849      	lsrs	r1, r1, #1
 23fb350:	ea5f 0030 	movs.w	r0, r0, rrx
 23fb354:	ea4f 0c3c 	mov.w	ip, ip, rrx
 23fb358:	f104 0401 	add.w	r4, r4, #1
 23fb35c:	ea4f 5244 	mov.w	r2, r4, lsl #21
 23fb360:	f512 0f80 	cmn.w	r2, #4194304	; 0x400000
 23fb364:	f080 809a 	bcs.w	23fb49c <__adddf3+0x240>
 23fb368:	f1bc 4f00 	cmp.w	ip, #2147483648	; 0x80000000
 23fb36c:	bf08      	it	eq
 23fb36e:	ea5f 0c50 	movseq.w	ip, r0, lsr #1
 23fb372:	f150 0000 	adcs.w	r0, r0, #0
 23fb376:	eb41 5104 	adc.w	r1, r1, r4, lsl #20
 23fb37a:	ea41 0105 	orr.w	r1, r1, r5
 23fb37e:	bd30      	pop	{r4, r5, pc}
 23fb380:	ea5f 0c4c 	movs.w	ip, ip, lsl #1
 23fb384:	4140      	adcs	r0, r0
 23fb386:	eb41 0101 	adc.w	r1, r1, r1
 23fb38a:	3c01      	subs	r4, #1
 23fb38c:	bf28      	it	cs
 23fb38e:	f5b1 1f80 	cmpcs.w	r1, #1048576	; 0x100000
 23fb392:	d2e9      	bcs.n	23fb368 <__adddf3+0x10c>
 23fb394:	f091 0f00 	teq	r1, #0
 23fb398:	bf04      	itt	eq
 23fb39a:	4601      	moveq	r1, r0
 23fb39c:	2000      	moveq	r0, #0
 23fb39e:	fab1 f381 	clz	r3, r1
 23fb3a2:	bf08      	it	eq
 23fb3a4:	3320      	addeq	r3, #32
 23fb3a6:	f1a3 030b 	sub.w	r3, r3, #11
 23fb3aa:	f1b3 0220 	subs.w	r2, r3, #32
 23fb3ae:	da0c      	bge.n	23fb3ca <__adddf3+0x16e>
 23fb3b0:	320c      	adds	r2, #12
 23fb3b2:	dd08      	ble.n	23fb3c6 <__adddf3+0x16a>
 23fb3b4:	f102 0c14 	add.w	ip, r2, #20
 23fb3b8:	f1c2 020c 	rsb	r2, r2, #12
 23fb3bc:	fa01 f00c 	lsl.w	r0, r1, ip
 23fb3c0:	fa21 f102 	lsr.w	r1, r1, r2
 23fb3c4:	e00c      	b.n	23fb3e0 <__adddf3+0x184>
 23fb3c6:	f102 0214 	add.w	r2, r2, #20
 23fb3ca:	bfd8      	it	le
 23fb3cc:	f1c2 0c20 	rsble	ip, r2, #32
 23fb3d0:	fa01 f102 	lsl.w	r1, r1, r2
 23fb3d4:	fa20 fc0c 	lsr.w	ip, r0, ip
 23fb3d8:	bfdc      	itt	le
 23fb3da:	ea41 010c 	orrle.w	r1, r1, ip
 23fb3de:	4090      	lslle	r0, r2
 23fb3e0:	1ae4      	subs	r4, r4, r3
 23fb3e2:	bfa2      	ittt	ge
 23fb3e4:	eb01 5104 	addge.w	r1, r1, r4, lsl #20
 23fb3e8:	4329      	orrge	r1, r5
 23fb3ea:	bd30      	popge	{r4, r5, pc}
 23fb3ec:	ea6f 0404 	mvn.w	r4, r4
 23fb3f0:	3c1f      	subs	r4, #31
 23fb3f2:	da1c      	bge.n	23fb42e <__adddf3+0x1d2>
 23fb3f4:	340c      	adds	r4, #12
 23fb3f6:	dc0e      	bgt.n	23fb416 <__adddf3+0x1ba>
 23fb3f8:	f104 0414 	add.w	r4, r4, #20
 23fb3fc:	f1c4 0220 	rsb	r2, r4, #32
 23fb400:	fa20 f004 	lsr.w	r0, r0, r4
 23fb404:	fa01 f302 	lsl.w	r3, r1, r2
 23fb408:	ea40 0003 	orr.w	r0, r0, r3
 23fb40c:	fa21 f304 	lsr.w	r3, r1, r4
 23fb410:	ea45 0103 	orr.w	r1, r5, r3
 23fb414:	bd30      	pop	{r4, r5, pc}
 23fb416:	f1c4 040c 	rsb	r4, r4, #12
 23fb41a:	f1c4 0220 	rsb	r2, r4, #32
 23fb41e:	fa20 f002 	lsr.w	r0, r0, r2
 23fb422:	fa01 f304 	lsl.w	r3, r1, r4
 23fb426:	ea40 0003 	orr.w	r0, r0, r3
 23fb42a:	4629      	mov	r1, r5
 23fb42c:	bd30      	pop	{r4, r5, pc}
 23fb42e:	fa21 f004 	lsr.w	r0, r1, r4
 23fb432:	4629      	mov	r1, r5
 23fb434:	bd30      	pop	{r4, r5, pc}
 23fb436:	f094 0f00 	teq	r4, #0
 23fb43a:	f483 1380 	eor.w	r3, r3, #1048576	; 0x100000
 23fb43e:	bf06      	itte	eq
 23fb440:	f481 1180 	eoreq.w	r1, r1, #1048576	; 0x100000
 23fb444:	3401      	addeq	r4, #1
 23fb446:	3d01      	subne	r5, #1
 23fb448:	e74e      	b.n	23fb2e8 <__adddf3+0x8c>
 23fb44a:	ea7f 5c64 	mvns.w	ip, r4, asr #21
 23fb44e:	bf18      	it	ne
 23fb450:	ea7f 5c65 	mvnsne.w	ip, r5, asr #21
 23fb454:	d029      	beq.n	23fb4aa <__adddf3+0x24e>
 23fb456:	ea94 0f05 	teq	r4, r5
 23fb45a:	bf08      	it	eq
 23fb45c:	ea90 0f02 	teqeq	r0, r2
 23fb460:	d005      	beq.n	23fb46e <__adddf3+0x212>
 23fb462:	ea54 0c00 	orrs.w	ip, r4, r0
 23fb466:	bf04      	itt	eq
 23fb468:	4619      	moveq	r1, r3
 23fb46a:	4610      	moveq	r0, r2
 23fb46c:	bd30      	pop	{r4, r5, pc}
 23fb46e:	ea91 0f03 	teq	r1, r3
 23fb472:	bf1e      	ittt	ne
 23fb474:	2100      	movne	r1, #0
 23fb476:	2000      	movne	r0, #0
 23fb478:	bd30      	popne	{r4, r5, pc}
 23fb47a:	ea5f 5c54 	movs.w	ip, r4, lsr #21
 23fb47e:	d105      	bne.n	23fb48c <__adddf3+0x230>
 23fb480:	0040      	lsls	r0, r0, #1
 23fb482:	4149      	adcs	r1, r1
 23fb484:	bf28      	it	cs
 23fb486:	f041 4100 	orrcs.w	r1, r1, #2147483648	; 0x80000000
 23fb48a:	bd30      	pop	{r4, r5, pc}
 23fb48c:	f514 0480 	adds.w	r4, r4, #4194304	; 0x400000
 23fb490:	bf3c      	itt	cc
 23fb492:	f501 1180 	addcc.w	r1, r1, #1048576	; 0x100000
 23fb496:	bd30      	popcc	{r4, r5, pc}
 23fb498:	f001 4500 	and.w	r5, r1, #2147483648	; 0x80000000
 23fb49c:	f045 41fe 	orr.w	r1, r5, #2130706432	; 0x7f000000
 23fb4a0:	f441 0170 	orr.w	r1, r1, #15728640	; 0xf00000
 23fb4a4:	f04f 0000 	mov.w	r0, #0
 23fb4a8:	bd30      	pop	{r4, r5, pc}
 23fb4aa:	ea7f 5c64 	mvns.w	ip, r4, asr #21
 23fb4ae:	bf1a      	itte	ne
 23fb4b0:	4619      	movne	r1, r3
 23fb4b2:	4610      	movne	r0, r2
 23fb4b4:	ea7f 5c65 	mvnseq.w	ip, r5, asr #21
 23fb4b8:	bf1c      	itt	ne
 23fb4ba:	460b      	movne	r3, r1
 23fb4bc:	4602      	movne	r2, r0
 23fb4be:	ea50 3401 	orrs.w	r4, r0, r1, lsl #12
 23fb4c2:	bf06      	itte	eq
 23fb4c4:	ea52 3503 	orrseq.w	r5, r2, r3, lsl #12
 23fb4c8:	ea91 0f03 	teqeq	r1, r3
 23fb4cc:	f441 2100 	orrne.w	r1, r1, #524288	; 0x80000
 23fb4d0:	bd30      	pop	{r4, r5, pc}
 23fb4d2:	bf00      	nop

023fb4d4 <__aeabi_ui2d>:
 23fb4d4:	f090 0f00 	teq	r0, #0
 23fb4d8:	bf04      	itt	eq
 23fb4da:	2100      	moveq	r1, #0
 23fb4dc:	4770      	bxeq	lr
 23fb4de:	b530      	push	{r4, r5, lr}
 23fb4e0:	f44f 6480 	mov.w	r4, #1024	; 0x400
 23fb4e4:	f104 0432 	add.w	r4, r4, #50	; 0x32
 23fb4e8:	f04f 0500 	mov.w	r5, #0
 23fb4ec:	f04f 0100 	mov.w	r1, #0
 23fb4f0:	e750      	b.n	23fb394 <__adddf3+0x138>
 23fb4f2:	bf00      	nop

023fb4f4 <__aeabi_i2d>:
 23fb4f4:	f090 0f00 	teq	r0, #0
 23fb4f8:	bf04      	itt	eq
 23fb4fa:	2100      	moveq	r1, #0
 23fb4fc:	4770      	bxeq	lr
 23fb4fe:	b530      	push	{r4, r5, lr}
 23fb500:	f44f 6480 	mov.w	r4, #1024	; 0x400
 23fb504:	f104 0432 	add.w	r4, r4, #50	; 0x32
 23fb508:	f010 4500 	ands.w	r5, r0, #2147483648	; 0x80000000
 23fb50c:	bf48      	it	mi
 23fb50e:	4240      	negmi	r0, r0
 23fb510:	f04f 0100 	mov.w	r1, #0
 23fb514:	e73e      	b.n	23fb394 <__adddf3+0x138>
 23fb516:	bf00      	nop

023fb518 <__aeabi_f2d>:
 23fb518:	0042      	lsls	r2, r0, #1
 23fb51a:	ea4f 01e2 	mov.w	r1, r2, asr #3
 23fb51e:	ea4f 0131 	mov.w	r1, r1, rrx
 23fb522:	ea4f 7002 	mov.w	r0, r2, lsl #28
 23fb526:	bf1f      	itttt	ne
 23fb528:	f012 437f 	andsne.w	r3, r2, #4278190080	; 0xff000000
 23fb52c:	f093 4f7f 	teqne	r3, #4278190080	; 0xff000000
 23fb530:	f081 5160 	eorne.w	r1, r1, #939524096	; 0x38000000
 23fb534:	4770      	bxne	lr
 23fb536:	f032 427f 	bics.w	r2, r2, #4278190080	; 0xff000000
 23fb53a:	bf08      	it	eq
 23fb53c:	4770      	bxeq	lr
 23fb53e:	f093 4f7f 	teq	r3, #4278190080	; 0xff000000
 23fb542:	bf04      	itt	eq
 23fb544:	f441 2100 	orreq.w	r1, r1, #524288	; 0x80000
 23fb548:	4770      	bxeq	lr
 23fb54a:	b530      	push	{r4, r5, lr}
 23fb54c:	f44f 7460 	mov.w	r4, #896	; 0x380
 23fb550:	f001 4500 	and.w	r5, r1, #2147483648	; 0x80000000
 23fb554:	f021 4100 	bic.w	r1, r1, #2147483648	; 0x80000000
 23fb558:	e71c      	b.n	23fb394 <__adddf3+0x138>
 23fb55a:	bf00      	nop

023fb55c <__aeabi_ul2d>:
 23fb55c:	ea50 0201 	orrs.w	r2, r0, r1
 23fb560:	bf08      	it	eq
 23fb562:	4770      	bxeq	lr
 23fb564:	b530      	push	{r4, r5, lr}
 23fb566:	f04f 0500 	mov.w	r5, #0
 23fb56a:	e00a      	b.n	23fb582 <__aeabi_l2d+0x16>

023fb56c <__aeabi_l2d>:
 23fb56c:	ea50 0201 	orrs.w	r2, r0, r1
 23fb570:	bf08      	it	eq
 23fb572:	4770      	bxeq	lr
 23fb574:	b530      	push	{r4, r5, lr}
 23fb576:	f011 4500 	ands.w	r5, r1, #2147483648	; 0x80000000
 23fb57a:	d502      	bpl.n	23fb582 <__aeabi_l2d+0x16>
 23fb57c:	4240      	negs	r0, r0
 23fb57e:	eb61 0141 	sbc.w	r1, r1, r1, lsl #1
 23fb582:	f44f 6480 	mov.w	r4, #1024	; 0x400
 23fb586:	f104 0432 	add.w	r4, r4, #50	; 0x32
 23fb58a:	ea5f 5c91 	movs.w	ip, r1, lsr #22
 23fb58e:	f43f aed8 	beq.w	23fb342 <__adddf3+0xe6>
 23fb592:	f04f 0203 	mov.w	r2, #3
 23fb596:	ea5f 0cdc 	movs.w	ip, ip, lsr #3
 23fb59a:	bf18      	it	ne
 23fb59c:	3203      	addne	r2, #3
 23fb59e:	ea5f 0cdc 	movs.w	ip, ip, lsr #3
 23fb5a2:	bf18      	it	ne
 23fb5a4:	3203      	addne	r2, #3
 23fb5a6:	eb02 02dc 	add.w	r2, r2, ip, lsr #3
 23fb5aa:	f1c2 0320 	rsb	r3, r2, #32
 23fb5ae:	fa00 fc03 	lsl.w	ip, r0, r3
 23fb5b2:	fa20 f002 	lsr.w	r0, r0, r2
 23fb5b6:	fa01 fe03 	lsl.w	lr, r1, r3
 23fb5ba:	ea40 000e 	orr.w	r0, r0, lr
 23fb5be:	fa21 f102 	lsr.w	r1, r1, r2
 23fb5c2:	4414      	add	r4, r2
 23fb5c4:	e6bd      	b.n	23fb342 <__adddf3+0xe6>
 23fb5c6:	bf00      	nop

023fb5c8 <__aeabi_dmul>:
 23fb5c8:	b570      	push	{r4, r5, r6, lr}
 23fb5ca:	f04f 0cff 	mov.w	ip, #255	; 0xff
 23fb5ce:	f44c 6ce0 	orr.w	ip, ip, #1792	; 0x700
 23fb5d2:	ea1c 5411 	ands.w	r4, ip, r1, lsr #20
 23fb5d6:	bf1d      	ittte	ne
 23fb5d8:	ea1c 5513 	andsne.w	r5, ip, r3, lsr #20
 23fb5dc:	ea94 0f0c 	teqne	r4, ip
 23fb5e0:	ea95 0f0c 	teqne	r5, ip
 23fb5e4:	f000 f8de 	bleq	23fb7a4 <__aeabi_dmul+0x1dc>
 23fb5e8:	442c      	add	r4, r5
 23fb5ea:	ea81 0603 	eor.w	r6, r1, r3
 23fb5ee:	ea21 514c 	bic.w	r1, r1, ip, lsl #21
 23fb5f2:	ea23 534c 	bic.w	r3, r3, ip, lsl #21
 23fb5f6:	ea50 3501 	orrs.w	r5, r0, r1, lsl #12
 23fb5fa:	bf18      	it	ne
 23fb5fc:	ea52 3503 	orrsne.w	r5, r2, r3, lsl #12
 23fb600:	f441 1180 	orr.w	r1, r1, #1048576	; 0x100000
 23fb604:	f443 1380 	orr.w	r3, r3, #1048576	; 0x100000
 23fb608:	d038      	beq.n	23fb67c <__aeabi_dmul+0xb4>
 23fb60a:	fba0 ce02 	umull	ip, lr, r0, r2
 23fb60e:	f04f 0500 	mov.w	r5, #0
 23fb612:	fbe1 e502 	umlal	lr, r5, r1, r2
 23fb616:	f006 4200 	and.w	r2, r6, #2147483648	; 0x80000000
 23fb61a:	fbe0 e503 	umlal	lr, r5, r0, r3
 23fb61e:	f04f 0600 	mov.w	r6, #0
 23fb622:	fbe1 5603 	umlal	r5, r6, r1, r3
 23fb626:	f09c 0f00 	teq	ip, #0
 23fb62a:	bf18      	it	ne
 23fb62c:	f04e 0e01 	orrne.w	lr, lr, #1
 23fb630:	f1a4 04ff 	sub.w	r4, r4, #255	; 0xff
 23fb634:	f5b6 7f00 	cmp.w	r6, #512	; 0x200
 23fb638:	f564 7440 	sbc.w	r4, r4, #768	; 0x300
 23fb63c:	d204      	bcs.n	23fb648 <__aeabi_dmul+0x80>
 23fb63e:	ea5f 0e4e 	movs.w	lr, lr, lsl #1
 23fb642:	416d      	adcs	r5, r5
 23fb644:	eb46 0606 	adc.w	r6, r6, r6
 23fb648:	ea42 21c6 	orr.w	r1, r2, r6, lsl #11
 23fb64c:	ea41 5155 	orr.w	r1, r1, r5, lsr #21
 23fb650:	ea4f 20c5 	mov.w	r0, r5, lsl #11
 23fb654:	ea40 505e 	orr.w	r0, r0, lr, lsr #21
 23fb658:	ea4f 2ece 	mov.w	lr, lr, lsl #11
 23fb65c:	f1b4 0cfd 	subs.w	ip, r4, #253	; 0xfd
 23fb660:	bf88      	it	hi
 23fb662:	f5bc 6fe0 	cmphi.w	ip, #1792	; 0x700
 23fb666:	d81e      	bhi.n	23fb6a6 <__aeabi_dmul+0xde>
 23fb668:	f1be 4f00 	cmp.w	lr, #2147483648	; 0x80000000
 23fb66c:	bf08      	it	eq
 23fb66e:	ea5f 0e50 	movseq.w	lr, r0, lsr #1
 23fb672:	f150 0000 	adcs.w	r0, r0, #0
 23fb676:	eb41 5104 	adc.w	r1, r1, r4, lsl #20
 23fb67a:	bd70      	pop	{r4, r5, r6, pc}
 23fb67c:	f006 4600 	and.w	r6, r6, #2147483648	; 0x80000000
 23fb680:	ea46 0101 	orr.w	r1, r6, r1
 23fb684:	ea40 0002 	orr.w	r0, r0, r2
 23fb688:	ea81 0103 	eor.w	r1, r1, r3
 23fb68c:	ebb4 045c 	subs.w	r4, r4, ip, lsr #1
 23fb690:	bfc2      	ittt	gt
 23fb692:	ebd4 050c 	rsbsgt	r5, r4, ip
 23fb696:	ea41 5104 	orrgt.w	r1, r1, r4, lsl #20
 23fb69a:	bd70      	popgt	{r4, r5, r6, pc}
 23fb69c:	f441 1180 	orr.w	r1, r1, #1048576	; 0x100000
 23fb6a0:	f04f 0e00 	mov.w	lr, #0
 23fb6a4:	3c01      	subs	r4, #1
 23fb6a6:	f300 80ab 	bgt.w	23fb800 <__aeabi_dmul+0x238>
 23fb6aa:	f114 0f36 	cmn.w	r4, #54	; 0x36
 23fb6ae:	bfde      	ittt	le
 23fb6b0:	2000      	movle	r0, #0
 23fb6b2:	f001 4100 	andle.w	r1, r1, #2147483648	; 0x80000000
 23fb6b6:	bd70      	pople	{r4, r5, r6, pc}
 23fb6b8:	f1c4 0400 	rsb	r4, r4, #0
 23fb6bc:	3c20      	subs	r4, #32
 23fb6be:	da35      	bge.n	23fb72c <__aeabi_dmul+0x164>
 23fb6c0:	340c      	adds	r4, #12
 23fb6c2:	dc1b      	bgt.n	23fb6fc <__aeabi_dmul+0x134>
 23fb6c4:	f104 0414 	add.w	r4, r4, #20
 23fb6c8:	f1c4 0520 	rsb	r5, r4, #32
 23fb6cc:	fa00 f305 	lsl.w	r3, r0, r5
 23fb6d0:	fa20 f004 	lsr.w	r0, r0, r4
 23fb6d4:	fa01 f205 	lsl.w	r2, r1, r5
 23fb6d8:	ea40 0002 	orr.w	r0, r0, r2
 23fb6dc:	f001 4200 	and.w	r2, r1, #2147483648	; 0x80000000
 23fb6e0:	f021 4100 	bic.w	r1, r1, #2147483648	; 0x80000000
 23fb6e4:	eb10 70d3 	adds.w	r0, r0, r3, lsr #31
 23fb6e8:	fa21 f604 	lsr.w	r6, r1, r4
 23fb6ec:	eb42 0106 	adc.w	r1, r2, r6
 23fb6f0:	ea5e 0e43 	orrs.w	lr, lr, r3, lsl #1
 23fb6f4:	bf08      	it	eq
 23fb6f6:	ea20 70d3 	biceq.w	r0, r0, r3, lsr #31
 23fb6fa:	bd70      	pop	{r4, r5, r6, pc}
 23fb6fc:	f1c4 040c 	rsb	r4, r4, #12
 23fb700:	f1c4 0520 	rsb	r5, r4, #32
 23fb704:	fa00 f304 	lsl.w	r3, r0, r4
 23fb708:	fa20 f005 	lsr.w	r0, r0, r5
 23fb70c:	fa01 f204 	lsl.w	r2, r1, r4
 23fb710:	ea40 0002 	orr.w	r0, r0, r2
 23fb714:	f001 4100 	and.w	r1, r1, #2147483648	; 0x80000000
 23fb718:	eb10 70d3 	adds.w	r0, r0, r3, lsr #31
 23fb71c:	f141 0100 	adc.w	r1, r1, #0
 23fb720:	ea5e 0e43 	orrs.w	lr, lr, r3, lsl #1
 23fb724:	bf08      	it	eq
 23fb726:	ea20 70d3 	biceq.w	r0, r0, r3, lsr #31
 23fb72a:	bd70      	pop	{r4, r5, r6, pc}
 23fb72c:	f1c4 0520 	rsb	r5, r4, #32
 23fb730:	fa00 f205 	lsl.w	r2, r0, r5
 23fb734:	ea4e 0e02 	orr.w	lr, lr, r2
 23fb738:	fa20 f304 	lsr.w	r3, r0, r4
 23fb73c:	fa01 f205 	lsl.w	r2, r1, r5
 23fb740:	ea43 0302 	orr.w	r3, r3, r2
 23fb744:	fa21 f004 	lsr.w	r0, r1, r4
 23fb748:	f001 4100 	and.w	r1, r1, #2147483648	; 0x80000000
 23fb74c:	fa21 f204 	lsr.w	r2, r1, r4
 23fb750:	ea20 0002 	bic.w	r0, r0, r2
 23fb754:	eb00 70d3 	add.w	r0, r0, r3, lsr #31
 23fb758:	ea5e 0e43 	orrs.w	lr, lr, r3, lsl #1
 23fb75c:	bf08      	it	eq
 23fb75e:	ea20 70d3 	biceq.w	r0, r0, r3, lsr #31
 23fb762:	bd70      	pop	{r4, r5, r6, pc}
 23fb764:	f094 0f00 	teq	r4, #0
 23fb768:	d10f      	bne.n	23fb78a <__aeabi_dmul+0x1c2>
 23fb76a:	f001 4600 	and.w	r6, r1, #2147483648	; 0x80000000
 23fb76e:	0040      	lsls	r0, r0, #1
 23fb770:	eb41 0101 	adc.w	r1, r1, r1
 23fb774:	f411 1f80 	tst.w	r1, #1048576	; 0x100000
 23fb778:	bf08      	it	eq
 23fb77a:	3c01      	subeq	r4, #1
 23fb77c:	d0f7      	beq.n	23fb76e <__aeabi_dmul+0x1a6>
 23fb77e:	ea41 0106 	orr.w	r1, r1, r6
 23fb782:	f095 0f00 	teq	r5, #0
 23fb786:	bf18      	it	ne
 23fb788:	4770      	bxne	lr
 23fb78a:	f003 4600 	and.w	r6, r3, #2147483648	; 0x80000000
 23fb78e:	0052      	lsls	r2, r2, #1
 23fb790:	eb43 0303 	adc.w	r3, r3, r3
 23fb794:	f413 1f80 	tst.w	r3, #1048576	; 0x100000
 23fb798:	bf08      	it	eq
 23fb79a:	3d01      	subeq	r5, #1
 23fb79c:	d0f7      	beq.n	23fb78e <__aeabi_dmul+0x1c6>
 23fb79e:	ea43 0306 	orr.w	r3, r3, r6
 23fb7a2:	4770      	bx	lr
 23fb7a4:	ea94 0f0c 	teq	r4, ip
 23fb7a8:	ea0c 5513 	and.w	r5, ip, r3, lsr #20
 23fb7ac:	bf18      	it	ne
 23fb7ae:	ea95 0f0c 	teqne	r5, ip
 23fb7b2:	d00c      	beq.n	23fb7ce <__aeabi_dmul+0x206>
 23fb7b4:	ea50 0641 	orrs.w	r6, r0, r1, lsl #1
 23fb7b8:	bf18      	it	ne
 23fb7ba:	ea52 0643 	orrsne.w	r6, r2, r3, lsl #1
 23fb7be:	d1d1      	bne.n	23fb764 <__aeabi_dmul+0x19c>
 23fb7c0:	ea81 0103 	eor.w	r1, r1, r3
 23fb7c4:	f001 4100 	and.w	r1, r1, #2147483648	; 0x80000000
 23fb7c8:	f04f 0000 	mov.w	r0, #0
 23fb7cc:	bd70      	pop	{r4, r5, r6, pc}
 23fb7ce:	ea50 0641 	orrs.w	r6, r0, r1, lsl #1
 23fb7d2:	bf06      	itte	eq
 23fb7d4:	4610      	moveq	r0, r2
 23fb7d6:	4619      	moveq	r1, r3
 23fb7d8:	ea52 0643 	orrsne.w	r6, r2, r3, lsl #1
 23fb7dc:	d019      	beq.n	23fb812 <__aeabi_dmul+0x24a>
 23fb7de:	ea94 0f0c 	teq	r4, ip
 23fb7e2:	d102      	bne.n	23fb7ea <__aeabi_dmul+0x222>
 23fb7e4:	ea50 3601 	orrs.w	r6, r0, r1, lsl #12
 23fb7e8:	d113      	bne.n	23fb812 <__aeabi_dmul+0x24a>
 23fb7ea:	ea95 0f0c 	teq	r5, ip
 23fb7ee:	d105      	bne.n	23fb7fc <__aeabi_dmul+0x234>
 23fb7f0:	ea52 3603 	orrs.w	r6, r2, r3, lsl #12
 23fb7f4:	bf1c      	itt	ne
 23fb7f6:	4610      	movne	r0, r2
 23fb7f8:	4619      	movne	r1, r3
 23fb7fa:	d10a      	bne.n	23fb812 <__aeabi_dmul+0x24a>
 23fb7fc:	ea81 0103 	eor.w	r1, r1, r3
 23fb800:	f001 4100 	and.w	r1, r1, #2147483648	; 0x80000000
 23fb804:	f041 41fe 	orr.w	r1, r1, #2130706432	; 0x7f000000
 23fb808:	f441 0170 	orr.w	r1, r1, #15728640	; 0xf00000
 23fb80c:	f04f 0000 	mov.w	r0, #0
 23fb810:	bd70      	pop	{r4, r5, r6, pc}
 23fb812:	f041 41fe 	orr.w	r1, r1, #2130706432	; 0x7f000000
 23fb816:	f441 0178 	orr.w	r1, r1, #16252928	; 0xf80000
 23fb81a:	bd70      	pop	{r4, r5, r6, pc}

023fb81c <__aeabi_ddiv>:
 23fb81c:	b570      	push	{r4, r5, r6, lr}
 23fb81e:	f04f 0cff 	mov.w	ip, #255	; 0xff
 23fb822:	f44c 6ce0 	orr.w	ip, ip, #1792	; 0x700
 23fb826:	ea1c 5411 	ands.w	r4, ip, r1, lsr #20
 23fb82a:	bf1d      	ittte	ne
 23fb82c:	ea1c 5513 	andsne.w	r5, ip, r3, lsr #20
 23fb830:	ea94 0f0c 	teqne	r4, ip
 23fb834:	ea95 0f0c 	teqne	r5, ip
 23fb838:	f000 f8a7 	bleq	23fb98a <__aeabi_ddiv+0x16e>
 23fb83c:	eba4 0405 	sub.w	r4, r4, r5
 23fb840:	ea81 0e03 	eor.w	lr, r1, r3
 23fb844:	ea52 3503 	orrs.w	r5, r2, r3, lsl #12
 23fb848:	ea4f 3101 	mov.w	r1, r1, lsl #12
 23fb84c:	f000 8088 	beq.w	23fb960 <__aeabi_ddiv+0x144>
 23fb850:	ea4f 3303 	mov.w	r3, r3, lsl #12
 23fb854:	f04f 5580 	mov.w	r5, #268435456	; 0x10000000
 23fb858:	ea45 1313 	orr.w	r3, r5, r3, lsr #4
 23fb85c:	ea43 6312 	orr.w	r3, r3, r2, lsr #24
 23fb860:	ea4f 2202 	mov.w	r2, r2, lsl #8
 23fb864:	ea45 1511 	orr.w	r5, r5, r1, lsr #4
 23fb868:	ea45 6510 	orr.w	r5, r5, r0, lsr #24
 23fb86c:	ea4f 2600 	mov.w	r6, r0, lsl #8
 23fb870:	f00e 4100 	and.w	r1, lr, #2147483648	; 0x80000000
 23fb874:	429d      	cmp	r5, r3
 23fb876:	bf08      	it	eq
 23fb878:	4296      	cmpeq	r6, r2
 23fb87a:	f144 04fd 	adc.w	r4, r4, #253	; 0xfd
 23fb87e:	f504 7440 	add.w	r4, r4, #768	; 0x300
 23fb882:	d202      	bcs.n	23fb88a <__aeabi_ddiv+0x6e>
 23fb884:	085b      	lsrs	r3, r3, #1
 23fb886:	ea4f 0232 	mov.w	r2, r2, rrx
 23fb88a:	1ab6      	subs	r6, r6, r2
 23fb88c:	eb65 0503 	sbc.w	r5, r5, r3
 23fb890:	085b      	lsrs	r3, r3, #1
 23fb892:	ea4f 0232 	mov.w	r2, r2, rrx
 23fb896:	f44f 1080 	mov.w	r0, #1048576	; 0x100000
 23fb89a:	f44f 2c00 	mov.w	ip, #524288	; 0x80000
 23fb89e:	ebb6 0e02 	subs.w	lr, r6, r2
 23fb8a2:	eb75 0e03 	sbcs.w	lr, r5, r3
 23fb8a6:	bf22      	ittt	cs
 23fb8a8:	1ab6      	subcs	r6, r6, r2
 23fb8aa:	4675      	movcs	r5, lr
 23fb8ac:	ea40 000c 	orrcs.w	r0, r0, ip
 23fb8b0:	085b      	lsrs	r3, r3, #1
 23fb8b2:	ea4f 0232 	mov.w	r2, r2, rrx
 23fb8b6:	ebb6 0e02 	subs.w	lr, r6, r2
 23fb8ba:	eb75 0e03 	sbcs.w	lr, r5, r3
 23fb8be:	bf22      	ittt	cs
 23fb8c0:	1ab6      	subcs	r6, r6, r2
 23fb8c2:	4675      	movcs	r5, lr
 23fb8c4:	ea40 005c 	orrcs.w	r0, r0, ip, lsr #1
 23fb8c8:	085b      	lsrs	r3, r3, #1
 23fb8ca:	ea4f 0232 	mov.w	r2, r2, rrx
 23fb8ce:	ebb6 0e02 	subs.w	lr, r6, r2
 23fb8d2:	eb75 0e03 	sbcs.w	lr, r5, r3
 23fb8d6:	bf22      	ittt	cs
 23fb8d8:	1ab6      	subcs	r6, r6, r2
 23fb8da:	4675      	movcs	r5, lr
 23fb8dc:	ea40 009c 	orrcs.w	r0, r0, ip, lsr #2
 23fb8e0:	085b      	lsrs	r3, r3, #1
 23fb8e2:	ea4f 0232 	mov.w	r2, r2, rrx
 23fb8e6:	ebb6 0e02 	subs.w	lr, r6, r2
 23fb8ea:	eb75 0e03 	sbcs.w	lr, r5, r3
 23fb8ee:	bf22      	ittt	cs
 23fb8f0:	1ab6      	subcs	r6, r6, r2
 23fb8f2:	4675      	movcs	r5, lr
 23fb8f4:	ea40 00dc 	orrcs.w	r0, r0, ip, lsr #3
 23fb8f8:	ea55 0e06 	orrs.w	lr, r5, r6
 23fb8fc:	d018      	beq.n	23fb930 <__aeabi_ddiv+0x114>
 23fb8fe:	ea4f 1505 	mov.w	r5, r5, lsl #4
 23fb902:	ea45 7516 	orr.w	r5, r5, r6, lsr #28
 23fb906:	ea4f 1606 	mov.w	r6, r6, lsl #4
 23fb90a:	ea4f 03c3 	mov.w	r3, r3, lsl #3
 23fb90e:	ea43 7352 	orr.w	r3, r3, r2, lsr #29
 23fb912:	ea4f 02c2 	mov.w	r2, r2, lsl #3
 23fb916:	ea5f 1c1c 	movs.w	ip, ip, lsr #4
 23fb91a:	d1c0      	bne.n	23fb89e <__aeabi_ddiv+0x82>
 23fb91c:	f411 1f80 	tst.w	r1, #1048576	; 0x100000
 23fb920:	d10b      	bne.n	23fb93a <__aeabi_ddiv+0x11e>
 23fb922:	ea41 0100 	orr.w	r1, r1, r0
 23fb926:	f04f 0000 	mov.w	r0, #0
 23fb92a:	f04f 4c00 	mov.w	ip, #2147483648	; 0x80000000
 23fb92e:	e7b6      	b.n	23fb89e <__aeabi_ddiv+0x82>
 23fb930:	f411 1f80 	tst.w	r1, #1048576	; 0x100000
 23fb934:	bf04      	itt	eq
 23fb936:	4301      	orreq	r1, r0
 23fb938:	2000      	moveq	r0, #0
 23fb93a:	f1b4 0cfd 	subs.w	ip, r4, #253	; 0xfd
 23fb93e:	bf88      	it	hi
 23fb940:	f5bc 6fe0 	cmphi.w	ip, #1792	; 0x700
 23fb944:	f63f aeaf 	bhi.w	23fb6a6 <__aeabi_dmul+0xde>
 23fb948:	ebb5 0c03 	subs.w	ip, r5, r3
 23fb94c:	bf04      	itt	eq
 23fb94e:	ebb6 0c02 	subseq.w	ip, r6, r2
 23fb952:	ea5f 0c50 	movseq.w	ip, r0, lsr #1
 23fb956:	f150 0000 	adcs.w	r0, r0, #0
 23fb95a:	eb41 5104 	adc.w	r1, r1, r4, lsl #20
 23fb95e:	bd70      	pop	{r4, r5, r6, pc}
 23fb960:	f00e 4e00 	and.w	lr, lr, #2147483648	; 0x80000000
 23fb964:	ea4e 3111 	orr.w	r1, lr, r1, lsr #12
 23fb968:	eb14 045c 	adds.w	r4, r4, ip, lsr #1
 23fb96c:	bfc2      	ittt	gt
 23fb96e:	ebd4 050c 	rsbsgt	r5, r4, ip
 23fb972:	ea41 5104 	orrgt.w	r1, r1, r4, lsl #20
 23fb976:	bd70      	popgt	{r4, r5, r6, pc}
 23fb978:	f441 1180 	orr.w	r1, r1, #1048576	; 0x100000
 23fb97c:	f04f 0e00 	mov.w	lr, #0
 23fb980:	3c01      	subs	r4, #1
 23fb982:	e690      	b.n	23fb6a6 <__aeabi_dmul+0xde>
 23fb984:	ea45 0e06 	orr.w	lr, r5, r6
 23fb988:	e68d      	b.n	23fb6a6 <__aeabi_dmul+0xde>
 23fb98a:	ea0c 5513 	and.w	r5, ip, r3, lsr #20
 23fb98e:	ea94 0f0c 	teq	r4, ip
 23fb992:	bf08      	it	eq
 23fb994:	ea95 0f0c 	teqeq	r5, ip
 23fb998:	f43f af3b 	beq.w	23fb812 <__aeabi_dmul+0x24a>
 23fb99c:	ea94 0f0c 	teq	r4, ip
 23fb9a0:	d10a      	bne.n	23fb9b8 <__aeabi_ddiv+0x19c>
 23fb9a2:	ea50 3401 	orrs.w	r4, r0, r1, lsl #12
 23fb9a6:	f47f af34 	bne.w	23fb812 <__aeabi_dmul+0x24a>
 23fb9aa:	ea95 0f0c 	teq	r5, ip
 23fb9ae:	f47f af25 	bne.w	23fb7fc <__aeabi_dmul+0x234>
 23fb9b2:	4610      	mov	r0, r2
 23fb9b4:	4619      	mov	r1, r3
 23fb9b6:	e72c      	b.n	23fb812 <__aeabi_dmul+0x24a>
 23fb9b8:	ea95 0f0c 	teq	r5, ip
 23fb9bc:	d106      	bne.n	23fb9cc <__aeabi_ddiv+0x1b0>
 23fb9be:	ea52 3503 	orrs.w	r5, r2, r3, lsl #12
 23fb9c2:	f43f aefd 	beq.w	23fb7c0 <__aeabi_dmul+0x1f8>
 23fb9c6:	4610      	mov	r0, r2
 23fb9c8:	4619      	mov	r1, r3
 23fb9ca:	e722      	b.n	23fb812 <__aeabi_dmul+0x24a>
 23fb9cc:	ea50 0641 	orrs.w	r6, r0, r1, lsl #1
 23fb9d0:	bf18      	it	ne
 23fb9d2:	ea52 0643 	orrsne.w	r6, r2, r3, lsl #1
 23fb9d6:	f47f aec5 	bne.w	23fb764 <__aeabi_dmul+0x19c>
 23fb9da:	ea50 0441 	orrs.w	r4, r0, r1, lsl #1
 23fb9de:	f47f af0d 	bne.w	23fb7fc <__aeabi_dmul+0x234>
 23fb9e2:	ea52 0543 	orrs.w	r5, r2, r3, lsl #1
 23fb9e6:	f47f aeeb 	bne.w	23fb7c0 <__aeabi_dmul+0x1f8>
 23fb9ea:	e712      	b.n	23fb812 <__aeabi_dmul+0x24a>

023fb9ec <__gedf2>:
 23fb9ec:	f04f 3cff 	mov.w	ip, #4294967295	; 0xffffffff
 23fb9f0:	e006      	b.n	23fba00 <__cmpdf2+0x4>
 23fb9f2:	bf00      	nop

023fb9f4 <__ledf2>:
 23fb9f4:	f04f 0c01 	mov.w	ip, #1
 23fb9f8:	e002      	b.n	23fba00 <__cmpdf2+0x4>
 23fb9fa:	bf00      	nop

023fb9fc <__cmpdf2>:
 23fb9fc:	f04f 0c01 	mov.w	ip, #1
 23fba00:	f84d cd04 	str.w	ip, [sp, #-4]!
 23fba04:	ea4f 0c41 	mov.w	ip, r1, lsl #1
 23fba08:	ea7f 5c6c 	mvns.w	ip, ip, asr #21
 23fba0c:	ea4f 0c43 	mov.w	ip, r3, lsl #1
 23fba10:	bf18      	it	ne
 23fba12:	ea7f 5c6c 	mvnsne.w	ip, ip, asr #21
 23fba16:	d01b      	beq.n	23fba50 <__cmpdf2+0x54>
 23fba18:	b001      	add	sp, #4
 23fba1a:	ea50 0c41 	orrs.w	ip, r0, r1, lsl #1
 23fba1e:	bf0c      	ite	eq
 23fba20:	ea52 0c43 	orrseq.w	ip, r2, r3, lsl #1
 23fba24:	ea91 0f03 	teqne	r1, r3
 23fba28:	bf02      	ittt	eq
 23fba2a:	ea90 0f02 	teqeq	r0, r2
 23fba2e:	2000      	moveq	r0, #0
 23fba30:	4770      	bxeq	lr
 23fba32:	f110 0f00 	cmn.w	r0, #0
 23fba36:	ea91 0f03 	teq	r1, r3
 23fba3a:	bf58      	it	pl
 23fba3c:	4299      	cmppl	r1, r3
 23fba3e:	bf08      	it	eq
 23fba40:	4290      	cmpeq	r0, r2
 23fba42:	bf2c      	ite	cs
 23fba44:	17d8      	asrcs	r0, r3, #31
 23fba46:	ea6f 70e3 	mvncc.w	r0, r3, asr #31
 23fba4a:	f040 0001 	orr.w	r0, r0, #1
 23fba4e:	4770      	bx	lr
 23fba50:	ea4f 0c41 	mov.w	ip, r1, lsl #1
 23fba54:	ea7f 5c6c 	mvns.w	ip, ip, asr #21
 23fba58:	d102      	bne.n	23fba60 <__cmpdf2+0x64>
 23fba5a:	ea50 3c01 	orrs.w	ip, r0, r1, lsl #12
 23fba5e:	d107      	bne.n	23fba70 <__cmpdf2+0x74>
 23fba60:	ea4f 0c43 	mov.w	ip, r3, lsl #1
 23fba64:	ea7f 5c6c 	mvns.w	ip, ip, asr #21
 23fba68:	d1d6      	bne.n	23fba18 <__cmpdf2+0x1c>
 23fba6a:	ea52 3c03 	orrs.w	ip, r2, r3, lsl #12
 23fba6e:	d0d3      	beq.n	23fba18 <__cmpdf2+0x1c>
 23fba70:	f85d 0b04 	ldr.w	r0, [sp], #4
 23fba74:	4770      	bx	lr
 23fba76:	bf00      	nop

023fba78 <__aeabi_cdrcmple>:
 23fba78:	4684      	mov	ip, r0
 23fba7a:	4610      	mov	r0, r2
 23fba7c:	4662      	mov	r2, ip
 23fba7e:	468c      	mov	ip, r1
 23fba80:	4619      	mov	r1, r3
 23fba82:	4663      	mov	r3, ip
 23fba84:	e000      	b.n	23fba88 <__aeabi_cdcmpeq>
 23fba86:	bf00      	nop

023fba88 <__aeabi_cdcmpeq>:
 23fba88:	b501      	push	{r0, lr}
 23fba8a:	f7ff ffb7 	bl	23fb9fc <__cmpdf2>
 23fba8e:	2800      	cmp	r0, #0
 23fba90:	bf48      	it	mi
 23fba92:	f110 0f00 	cmnmi.w	r0, #0
 23fba96:	bd01      	pop	{r0, pc}

023fba98 <__aeabi_dcmpeq>:
 23fba98:	f84d ed08 	str.w	lr, [sp, #-8]!
 23fba9c:	f7ff fff4 	bl	23fba88 <__aeabi_cdcmpeq>
 23fbaa0:	bf0c      	ite	eq
 23fbaa2:	2001      	moveq	r0, #1
 23fbaa4:	2000      	movne	r0, #0
 23fbaa6:	f85d fb08 	ldr.w	pc, [sp], #8
 23fbaaa:	bf00      	nop

023fbaac <__aeabi_dcmplt>:
 23fbaac:	f84d ed08 	str.w	lr, [sp, #-8]!
 23fbab0:	f7ff ffea 	bl	23fba88 <__aeabi_cdcmpeq>
 23fbab4:	bf34      	ite	cc
 23fbab6:	2001      	movcc	r0, #1
 23fbab8:	2000      	movcs	r0, #0
 23fbaba:	f85d fb08 	ldr.w	pc, [sp], #8
 23fbabe:	bf00      	nop

023fbac0 <__aeabi_dcmple>:
 23fbac0:	f84d ed08 	str.w	lr, [sp, #-8]!
 23fbac4:	f7ff ffe0 	bl	23fba88 <__aeabi_cdcmpeq>
 23fbac8:	bf94      	ite	ls
 23fbaca:	2001      	movls	r0, #1
 23fbacc:	2000      	movhi	r0, #0
 23fbace:	f85d fb08 	ldr.w	pc, [sp], #8
 23fbad2:	bf00      	nop

023fbad4 <__aeabi_dcmpge>:
 23fbad4:	f84d ed08 	str.w	lr, [sp, #-8]!
 23fbad8:	f7ff ffce 	bl	23fba78 <__aeabi_cdrcmple>
 23fbadc:	bf94      	ite	ls
 23fbade:	2001      	movls	r0, #1
 23fbae0:	2000      	movhi	r0, #0
 23fbae2:	f85d fb08 	ldr.w	pc, [sp], #8
 23fbae6:	bf00      	nop

023fbae8 <__aeabi_dcmpgt>:
 23fbae8:	f84d ed08 	str.w	lr, [sp, #-8]!
 23fbaec:	f7ff ffc4 	bl	23fba78 <__aeabi_cdrcmple>
 23fbaf0:	bf34      	ite	cc
 23fbaf2:	2001      	movcc	r0, #1
 23fbaf4:	2000      	movcs	r0, #0
 23fbaf6:	f85d fb08 	ldr.w	pc, [sp], #8
 23fbafa:	bf00      	nop

023fbafc <__aeabi_dcmpun>:
 23fbafc:	ea4f 0c41 	mov.w	ip, r1, lsl #1
 23fbb00:	ea7f 5c6c 	mvns.w	ip, ip, asr #21
 23fbb04:	d102      	bne.n	23fbb0c <__aeabi_dcmpun+0x10>
 23fbb06:	ea50 3c01 	orrs.w	ip, r0, r1, lsl #12
 23fbb0a:	d10a      	bne.n	23fbb22 <__aeabi_dcmpun+0x26>
 23fbb0c:	ea4f 0c43 	mov.w	ip, r3, lsl #1
 23fbb10:	ea7f 5c6c 	mvns.w	ip, ip, asr #21
 23fbb14:	d102      	bne.n	23fbb1c <__aeabi_dcmpun+0x20>
 23fbb16:	ea52 3c03 	orrs.w	ip, r2, r3, lsl #12
 23fbb1a:	d102      	bne.n	23fbb22 <__aeabi_dcmpun+0x26>
 23fbb1c:	f04f 0000 	mov.w	r0, #0
 23fbb20:	4770      	bx	lr
 23fbb22:	f04f 0001 	mov.w	r0, #1
 23fbb26:	4770      	bx	lr

023fbb28 <__aeabi_d2iz>:
 23fbb28:	ea4f 0241 	mov.w	r2, r1, lsl #1
 23fbb2c:	f512 1200 	adds.w	r2, r2, #2097152	; 0x200000
 23fbb30:	d215      	bcs.n	23fbb5e <__aeabi_d2iz+0x36>
 23fbb32:	d511      	bpl.n	23fbb58 <__aeabi_d2iz+0x30>
 23fbb34:	f46f 7378 	mvn.w	r3, #992	; 0x3e0
 23fbb38:	ebb3 5262 	subs.w	r2, r3, r2, asr #21
 23fbb3c:	d912      	bls.n	23fbb64 <__aeabi_d2iz+0x3c>
 23fbb3e:	ea4f 23c1 	mov.w	r3, r1, lsl #11
 23fbb42:	f043 4300 	orr.w	r3, r3, #2147483648	; 0x80000000
 23fbb46:	ea43 5350 	orr.w	r3, r3, r0, lsr #21
 23fbb4a:	f011 4f00 	tst.w	r1, #2147483648	; 0x80000000
 23fbb4e:	fa23 f002 	lsr.w	r0, r3, r2
 23fbb52:	bf18      	it	ne
 23fbb54:	4240      	negne	r0, r0
 23fbb56:	4770      	bx	lr
 23fbb58:	f04f 0000 	mov.w	r0, #0
 23fbb5c:	4770      	bx	lr
 23fbb5e:	ea50 3001 	orrs.w	r0, r0, r1, lsl #12
 23fbb62:	d105      	bne.n	23fbb70 <__aeabi_d2iz+0x48>
 23fbb64:	f011 4000 	ands.w	r0, r1, #2147483648	; 0x80000000
 23fbb68:	bf08      	it	eq
 23fbb6a:	f06f 4000 	mvneq.w	r0, #2147483648	; 0x80000000
 23fbb6e:	4770      	bx	lr
 23fbb70:	f04f 0000 	mov.w	r0, #0
 23fbb74:	4770      	bx	lr
 23fbb76:	bf00      	nop

023fbb78 <__aeabi_d2uiz>:
 23fbb78:	004a      	lsls	r2, r1, #1
 23fbb7a:	d211      	bcs.n	23fbba0 <__aeabi_d2uiz+0x28>
 23fbb7c:	f512 1200 	adds.w	r2, r2, #2097152	; 0x200000
 23fbb80:	d211      	bcs.n	23fbba6 <__aeabi_d2uiz+0x2e>
 23fbb82:	d50d      	bpl.n	23fbba0 <__aeabi_d2uiz+0x28>
 23fbb84:	f46f 7378 	mvn.w	r3, #992	; 0x3e0
 23fbb88:	ebb3 5262 	subs.w	r2, r3, r2, asr #21
 23fbb8c:	d40e      	bmi.n	23fbbac <__aeabi_d2uiz+0x34>
 23fbb8e:	ea4f 23c1 	mov.w	r3, r1, lsl #11
 23fbb92:	f043 4300 	orr.w	r3, r3, #2147483648	; 0x80000000
 23fbb96:	ea43 5350 	orr.w	r3, r3, r0, lsr #21
 23fbb9a:	fa23 f002 	lsr.w	r0, r3, r2
 23fbb9e:	4770      	bx	lr
 23fbba0:	f04f 0000 	mov.w	r0, #0
 23fbba4:	4770      	bx	lr
 23fbba6:	ea50 3001 	orrs.w	r0, r0, r1, lsl #12
 23fbbaa:	d102      	bne.n	23fbbb2 <__aeabi_d2uiz+0x3a>
 23fbbac:	f04f 30ff 	mov.w	r0, #4294967295	; 0xffffffff
 23fbbb0:	4770      	bx	lr
 23fbbb2:	f04f 0000 	mov.w	r0, #0
 23fbbb6:	4770      	bx	lr

023fbbb8 <__aeabi_d2f>:
 23fbbb8:	ea4f 0241 	mov.w	r2, r1, lsl #1
 23fbbbc:	f1b2 43e0 	subs.w	r3, r2, #1879048192	; 0x70000000
 23fbbc0:	bf24      	itt	cs
 23fbbc2:	f5b3 1c00 	subscs.w	ip, r3, #2097152	; 0x200000
 23fbbc6:	f1dc 5cfe 	rsbscs	ip, ip, #532676608	; 0x1fc00000
 23fbbca:	d90d      	bls.n	23fbbe8 <__aeabi_d2f+0x30>
 23fbbcc:	f001 4c00 	and.w	ip, r1, #2147483648	; 0x80000000
 23fbbd0:	ea4f 02c0 	mov.w	r2, r0, lsl #3
 23fbbd4:	ea4c 7050 	orr.w	r0, ip, r0, lsr #29
 23fbbd8:	f1b2 4f00 	cmp.w	r2, #2147483648	; 0x80000000
 23fbbdc:	eb40 0083 	adc.w	r0, r0, r3, lsl #2
 23fbbe0:	bf08      	it	eq
 23fbbe2:	f020 0001 	biceq.w	r0, r0, #1
 23fbbe6:	4770      	bx	lr
 23fbbe8:	f011 4f80 	tst.w	r1, #1073741824	; 0x40000000
 23fbbec:	d121      	bne.n	23fbc32 <__aeabi_d2f+0x7a>
 23fbbee:	f113 7238 	adds.w	r2, r3, #48234496	; 0x2e00000
 23fbbf2:	bfbc      	itt	lt
 23fbbf4:	f001 4000 	andlt.w	r0, r1, #2147483648	; 0x80000000
 23fbbf8:	4770      	bxlt	lr
 23fbbfa:	f441 1180 	orr.w	r1, r1, #1048576	; 0x100000
 23fbbfe:	ea4f 5252 	mov.w	r2, r2, lsr #21
 23fbc02:	f1c2 0218 	rsb	r2, r2, #24
 23fbc06:	f1c2 0c20 	rsb	ip, r2, #32
 23fbc0a:	fa10 f30c 	lsls.w	r3, r0, ip
 23fbc0e:	fa20 f002 	lsr.w	r0, r0, r2
 23fbc12:	bf18      	it	ne
 23fbc14:	f040 0001 	orrne.w	r0, r0, #1
 23fbc18:	ea4f 23c1 	mov.w	r3, r1, lsl #11
 23fbc1c:	ea4f 23d3 	mov.w	r3, r3, lsr #11
 23fbc20:	fa03 fc0c 	lsl.w	ip, r3, ip
 23fbc24:	ea40 000c 	orr.w	r0, r0, ip
 23fbc28:	fa23 f302 	lsr.w	r3, r3, r2
 23fbc2c:	ea4f 0343 	mov.w	r3, r3, lsl #1
 23fbc30:	e7cc      	b.n	23fbbcc <__aeabi_d2f+0x14>
 23fbc32:	ea7f 5362 	mvns.w	r3, r2, asr #21
 23fbc36:	d107      	bne.n	23fbc48 <__aeabi_d2f+0x90>
 23fbc38:	ea50 3301 	orrs.w	r3, r0, r1, lsl #12
 23fbc3c:	bf1e      	ittt	ne
 23fbc3e:	f04f 40fe 	movne.w	r0, #2130706432	; 0x7f000000
 23fbc42:	f440 0040 	orrne.w	r0, r0, #12582912	; 0xc00000
 23fbc46:	4770      	bxne	lr
 23fbc48:	f001 4000 	and.w	r0, r1, #2147483648	; 0x80000000
 23fbc4c:	f040 40fe 	orr.w	r0, r0, #2130706432	; 0x7f000000
 23fbc50:	f440 0000 	orr.w	r0, r0, #8388608	; 0x800000
 23fbc54:	4770      	bx	lr
 23fbc56:	bf00      	nop

023fbc58 <__aeabi_d2ulz>:
 23fbc58:	b5d0      	push	{r4, r6, r7, lr}
 23fbc5a:	2200      	movs	r2, #0
 23fbc5c:	4b0b      	ldr	r3, [pc, #44]	; (23fbc8c <__aeabi_d2ulz+0x34>)
 23fbc5e:	4606      	mov	r6, r0
 23fbc60:	460f      	mov	r7, r1
 23fbc62:	f7ff fcb1 	bl	23fb5c8 <__aeabi_dmul>
 23fbc66:	f7ff ff87 	bl	23fbb78 <__aeabi_d2uiz>
 23fbc6a:	4604      	mov	r4, r0
 23fbc6c:	f7ff fc32 	bl	23fb4d4 <__aeabi_ui2d>
 23fbc70:	2200      	movs	r2, #0
 23fbc72:	4b07      	ldr	r3, [pc, #28]	; (23fbc90 <__aeabi_d2ulz+0x38>)
 23fbc74:	f7ff fca8 	bl	23fb5c8 <__aeabi_dmul>
 23fbc78:	4602      	mov	r2, r0
 23fbc7a:	460b      	mov	r3, r1
 23fbc7c:	4630      	mov	r0, r6
 23fbc7e:	4639      	mov	r1, r7
 23fbc80:	f7ff faea 	bl	23fb258 <__aeabi_dsub>
 23fbc84:	f7ff ff78 	bl	23fbb78 <__aeabi_d2uiz>
 23fbc88:	4621      	mov	r1, r4
 23fbc8a:	bdd0      	pop	{r4, r6, r7, pc}
 23fbc8c:	3df00000 	.word	0x3df00000
 23fbc90:	41f00000 	.word	0x41f00000

023fbc94 <strcmp>:
 23fbc94:	f810 2b01 	ldrb.w	r2, [r0], #1
 23fbc98:	f811 3b01 	ldrb.w	r3, [r1], #1
 23fbc9c:	2a01      	cmp	r2, #1
 23fbc9e:	bf28      	it	cs
 23fbca0:	429a      	cmpcs	r2, r3
 23fbca2:	d0f7      	beq.n	23fbc94 <strcmp>
 23fbca4:	1ad0      	subs	r0, r2, r3
 23fbca6:	4770      	bx	lr

023fbca8 <strlen>:
 23fbca8:	4603      	mov	r3, r0
 23fbcaa:	f813 2b01 	ldrb.w	r2, [r3], #1
 23fbcae:	2a00      	cmp	r2, #0
 23fbcb0:	d1fb      	bne.n	23fbcaa <strlen+0x2>
 23fbcb2:	1a18      	subs	r0, r3, r0
 23fbcb4:	3801      	subs	r0, #1
 23fbcb6:	4770      	bx	lr

023fbcb8 <__aeabi_d2lz>:
 23fbcb8:	b538      	push	{r3, r4, r5, lr}
 23fbcba:	2200      	movs	r2, #0
 23fbcbc:	2300      	movs	r3, #0
 23fbcbe:	4604      	mov	r4, r0
 23fbcc0:	460d      	mov	r5, r1
 23fbcc2:	f7ff fef3 	bl	23fbaac <__aeabi_dcmplt>
 23fbcc6:	b928      	cbnz	r0, 23fbcd4 <__aeabi_d2lz+0x1c>
 23fbcc8:	4620      	mov	r0, r4
 23fbcca:	4629      	mov	r1, r5
 23fbccc:	e8bd 4038 	ldmia.w	sp!, {r3, r4, r5, lr}
 23fbcd0:	f7ff bfc2 	b.w	23fbc58 <__aeabi_d2ulz>
 23fbcd4:	4620      	mov	r0, r4
 23fbcd6:	f105 4100 	add.w	r1, r5, #2147483648	; 0x80000000
 23fbcda:	f7ff ffbd 	bl	23fbc58 <__aeabi_d2ulz>
 23fbcde:	4240      	negs	r0, r0
 23fbce0:	eb61 0141 	sbc.w	r1, r1, r1, lsl #1
 23fbce4:	bd38      	pop	{r3, r4, r5, pc}
 23fbce6:	bf00      	nop

023fbce8 <module_user_init>:
extern constructor_ptr_t link_constructors_location[];
extern constructor_ptr_t link_constructors_end;
#define link_constructors_size   ((unsigned long)&link_constructors_end  -  (unsigned long)&link_constructors_location )

void module_user_init()
{
 23fbce8:	b570      	push	{r4, r5, r6, lr}
    module_user_init_hook();
 23fbcea:	f001 fd9b 	bl	23fd824 <module_user_init_hook>

    // invoke constructors
    unsigned ctor_num;
    for (ctor_num=0; ctor_num < link_constructors_size/sizeof(constructor_ptr_t); ctor_num++ )
 23fbcee:	2500      	movs	r5, #0
 23fbcf0:	4e05      	ldr	r6, [pc, #20]	; (23fbd08 <module_user_init+0x20>)
 23fbcf2:	4c06      	ldr	r4, [pc, #24]	; (23fbd0c <module_user_init+0x24>)
 23fbcf4:	1ba4      	subs	r4, r4, r6
 23fbcf6:	08a4      	lsrs	r4, r4, #2
 23fbcf8:	42ac      	cmp	r4, r5
 23fbcfa:	d100      	bne.n	23fbcfe <module_user_init+0x16>
    {
        link_constructors_location[ctor_num]();
    }
}
 23fbcfc:	bd70      	pop	{r4, r5, r6, pc}
        link_constructors_location[ctor_num]();
 23fbcfe:	f856 3b04 	ldr.w	r3, [r6], #4
 23fbd02:	4798      	blx	r3
    for (ctor_num=0; ctor_num < link_constructors_size/sizeof(constructor_ptr_t); ctor_num++ )
 23fbd04:	3501      	adds	r5, #1
 23fbd06:	e7f7      	b.n	23fbcf8 <module_user_init+0x10>
 23fbd08:	023fffcc 	.word	0x023fffcc
 23fbd0c:	023ffff8 	.word	0x023ffff8

023fbd10 <module_user_setup>:

/**
 * Export these functions with a fuller name so they don't clash with the setup/loop wrappers in the system module.
 */
void module_user_setup() {
    setup();
 23fbd10:	f000 b864 	b.w	23fbddc <setup>

023fbd14 <module_user_loop>:
}

void module_user_loop() {
 23fbd14:	b508      	push	{r3, lr}
    loop();
 23fbd16:	f000 f8b3 	bl	23fbe80 <loop>
    _post_loop();
}
 23fbd1a:	e8bd 4008 	ldmia.w	sp!, {r3, lr}
    _post_loop();
 23fbd1e:	f001 bd39 	b.w	23fd794 <_post_loop>

023fbd22 <_Znaj>:
 23fbd22:	f000 bf95 	b.w	23fcc50 <malloc>

023fbd26 <_ZdlPvj>:
	free(p);
}

void operator delete(void *p, size_t size)
{
	free(p);
 23fbd26:	f000 bfa1 	b.w	23fcc6c <free>

023fbd2a <__register_exitproc>:
int __cxa_atexit(void (*f)(void *), void *p, void *d) {
    return 0;
}

void __register_exitproc(int type, void (*fn)(void), void* arg, void* d) {
}
 23fbd2a:	4770      	bx	lr

023fbd2c <_Z26cF_setTargetTempFromString6String>:
  }
  strip.show();

}

int cF_setTargetTempFromString(String inputString) {
 23fbd2c:	b510      	push	{r4, lr}
  double val = inputString.toFloat();
 23fbd2e:	f001 fbbb 	bl	23fd4a8 <_ZNK6String7toFloatEv>
  if (val>90) {
 23fbd32:	eddf 7a0f 	vldr	s15, [pc, #60]	; 23fbd70 <_Z26cF_setTargetTempFromString6String+0x44>
 23fbd36:	eeb4 0ae7 	vcmpe.f32	s0, s15
 23fbd3a:	eef1 fa10 	vmrs	APSR_nzcv, fpscr
 23fbd3e:	4c0d      	ldr	r4, [pc, #52]	; (23fbd74 <_Z26cF_setTargetTempFromString6String+0x48>)
 23fbd40:	dd05      	ble.n	23fbd4e <_Z26cF_setTargetTempFromString6String+0x22>
    targetTemp = 90.0;
 23fbd42:	2200      	movs	r2, #0
 23fbd44:	4b0c      	ldr	r3, [pc, #48]	; (23fbd78 <_Z26cF_setTargetTempFromString6String+0x4c>)
  } else if (val<50) {
    targetTemp = 50.0;
 23fbd46:	e9c4 2300 	strd	r2, r3, [r4]
  } else {
    targetTemp = val;
  }
  return 0;
  }
 23fbd4a:	2000      	movs	r0, #0
 23fbd4c:	bd10      	pop	{r4, pc}
  } else if (val<50) {
 23fbd4e:	eddf 7a0b 	vldr	s15, [pc, #44]	; 23fbd7c <_Z26cF_setTargetTempFromString6String+0x50>
 23fbd52:	eeb4 0ae7 	vcmpe.f32	s0, s15
 23fbd56:	eef1 fa10 	vmrs	APSR_nzcv, fpscr
 23fbd5a:	d502      	bpl.n	23fbd62 <_Z26cF_setTargetTempFromString6String+0x36>
    targetTemp = 50.0;
 23fbd5c:	2200      	movs	r2, #0
 23fbd5e:	4b08      	ldr	r3, [pc, #32]	; (23fbd80 <_Z26cF_setTargetTempFromString6String+0x54>)
 23fbd60:	e7f1      	b.n	23fbd46 <_Z26cF_setTargetTempFromString6String+0x1a>
  double val = inputString.toFloat();
 23fbd62:	ee10 0a10 	vmov	r0, s0
 23fbd66:	f7ff fbd7 	bl	23fb518 <__aeabi_f2d>
 23fbd6a:	e9c4 0100 	strd	r0, r1, [r4]
 23fbd6e:	e7ec      	b.n	23fbd4a <_Z26cF_setTargetTempFromString6String+0x1e>
 23fbd70:	42b40000 	.word	0x42b40000
 23fbd74:	1007acf8 	.word	0x1007acf8
 23fbd78:	40568000 	.word	0x40568000
 23fbd7c:	42480000 	.word	0x42480000
 23fbd80:	40490000 	.word	0x40490000

023fbd84 <_Z10cF_setMode6String>:



int cF_setMode(String inputString) {
 23fbd84:	b510      	push	{r4, lr}
    int compareTo(const String &s) const { return compareTo(s.buffer); }
    int compareTo(const char* cstr) const;
    unsigned char equals(const String &s) const;
    unsigned char equals(const char *cstr) const;
    unsigned char operator == (const String &rhs) const {return equals(rhs);}
    unsigned char operator == (const char *cstr) const {return equals(cstr);}
 23fbd86:	4910      	ldr	r1, [pc, #64]	; (23fbdc8 <_Z10cF_setMode6String+0x44>)
 23fbd88:	4604      	mov	r4, r0
 23fbd8a:	f001 fb7b 	bl	23fd484 <_ZNK6String6equalsEPKc>
  if (inputString == "Cool") {
 23fbd8e:	b118      	cbz	r0, 23fbd98 <_Z10cF_setMode6String+0x14>
    mode = COOL;
 23fbd90:	2000      	movs	r0, #0
    return 2;
  } else if (inputString == "Off") {
    mode = OFF;
    return 1;
  } else if (inputString == "REDALERT") {
    mode = REDALERT;
 23fbd92:	4b0e      	ldr	r3, [pc, #56]	; (23fbdcc <_Z10cF_setMode6String+0x48>)
 23fbd94:	6018      	str	r0, [r3, #0]
    return 3;
  } else {
    return -1; // Invalid input
  }
}
 23fbd96:	bd10      	pop	{r4, pc}
 23fbd98:	4620      	mov	r0, r4
 23fbd9a:	490d      	ldr	r1, [pc, #52]	; (23fbdd0 <_Z10cF_setMode6String+0x4c>)
 23fbd9c:	f001 fb72 	bl	23fd484 <_ZNK6String6equalsEPKc>
  } else if (inputString == "Heat") {
 23fbda0:	b108      	cbz	r0, 23fbda6 <_Z10cF_setMode6String+0x22>
    mode = HEAT;
 23fbda2:	2002      	movs	r0, #2
 23fbda4:	e7f5      	b.n	23fbd92 <_Z10cF_setMode6String+0xe>
 23fbda6:	4620      	mov	r0, r4
 23fbda8:	490a      	ldr	r1, [pc, #40]	; (23fbdd4 <_Z10cF_setMode6String+0x50>)
 23fbdaa:	f001 fb6b 	bl	23fd484 <_ZNK6String6equalsEPKc>
  } else if (inputString == "Off") {
 23fbdae:	b108      	cbz	r0, 23fbdb4 <_Z10cF_setMode6String+0x30>
    mode = OFF;
 23fbdb0:	2001      	movs	r0, #1
 23fbdb2:	e7ee      	b.n	23fbd92 <_Z10cF_setMode6String+0xe>
 23fbdb4:	4620      	mov	r0, r4
 23fbdb6:	4908      	ldr	r1, [pc, #32]	; (23fbdd8 <_Z10cF_setMode6String+0x54>)
 23fbdb8:	f001 fb64 	bl	23fd484 <_ZNK6String6equalsEPKc>
  } else if (inputString == "REDALERT") {
 23fbdbc:	b108      	cbz	r0, 23fbdc2 <_Z10cF_setMode6String+0x3e>
    mode = REDALERT;
 23fbdbe:	2003      	movs	r0, #3
 23fbdc0:	e7e7      	b.n	23fbd92 <_Z10cF_setMode6String+0xe>
    return -1; // Invalid input
 23fbdc2:	f04f 30ff 	mov.w	r0, #4294967295	; 0xffffffff
 23fbdc6:	e7e6      	b.n	23fbd96 <_Z10cF_setMode6String+0x12>
 23fbdc8:	023ff9a4 	.word	0x023ff9a4
 23fbdcc:	1007acf4 	.word	0x1007acf4
 23fbdd0:	023ff9a9 	.word	0x023ff9a9
 23fbdd4:	023ff9ae 	.word	0x023ff9ae
 23fbdd8:	023ff9b2 	.word	0x023ff9b2

023fbddc <setup>:
void setup() {
 23fbddc:	b510      	push	{r4, lr}
  strip.begin();
 23fbdde:	4819      	ldr	r0, [pc, #100]	; (23fbe44 <setup+0x68>)
 23fbde0:	f000 f9d4 	bl	23fc18c <_ZN17Adafruit_NeoPixel5beginEv>
  Serial.begin(9600);
 23fbde4:	f001 fc42 	bl	23fd66c <_Z16_fetch_usbserialv>
 23fbde8:	f44f 5116 	mov.w	r1, #9600	; 0x2580
 23fbdec:	f001 fc32 	bl	23fd654 <_ZN9USBSerial5beginEl>
  pinMode(tempPIN,INPUT); // Set the pin mode for the temperature sensor pin
 23fbdf0:	4b15      	ldr	r3, [pc, #84]	; (23fbe48 <setup+0x6c>)
 23fbdf2:	2100      	movs	r1, #0
 23fbdf4:	8818      	ldrh	r0, [r3, #0]
 23fbdf6:	f001 fd87 	bl	23fd908 <pinMode>
        return _variable(varKey, (const char*)userVar, userVarType);
    }

    template<typename T> static inline bool _variable(const char *varKey, typename T::PointerType userVar, const T& userVarType)
    {
        return spark_variable(varKey, (const void*)userVar, T::TYPE_ID, NULL);
 23fbdfa:	2300      	movs	r3, #0
 23fbdfc:	2209      	movs	r2, #9
 23fbdfe:	4913      	ldr	r1, [pc, #76]	; (23fbe4c <setup+0x70>)
 23fbe00:	4813      	ldr	r0, [pc, #76]	; (23fbe50 <setup+0x74>)
 23fbe02:	f000 fdff 	bl	23fca04 <spark_variable>
        return _function(name, args...);
    }

    static bool _function(const char *funcKey, user_function_int_str_t* func)
    {
        return register_function(call_raw_user_function, (void*)func, funcKey);
 23fbe06:	4c13      	ldr	r4, [pc, #76]	; (23fbe54 <setup+0x78>)
        return spark_variable(varKey, (const void*)userVar, T::TYPE_ID, NULL);
 23fbe08:	2300      	movs	r3, #0
 23fbe0a:	2209      	movs	r2, #9
 23fbe0c:	4912      	ldr	r1, [pc, #72]	; (23fbe58 <setup+0x7c>)
 23fbe0e:	4813      	ldr	r0, [pc, #76]	; (23fbe5c <setup+0x80>)
 23fbe10:	f000 fdf8 	bl	23fca04 <spark_variable>
 23fbe14:	2300      	movs	r3, #0
 23fbe16:	2202      	movs	r2, #2
 23fbe18:	4911      	ldr	r1, [pc, #68]	; (23fbe60 <setup+0x84>)
 23fbe1a:	4812      	ldr	r0, [pc, #72]	; (23fbe64 <setup+0x88>)
 23fbe1c:	f000 fdf2 	bl	23fca04 <spark_variable>
        return register_function(call_raw_user_function, (void*)func, funcKey);
 23fbe20:	4620      	mov	r0, r4
 23fbe22:	4a11      	ldr	r2, [pc, #68]	; (23fbe68 <setup+0x8c>)
 23fbe24:	4911      	ldr	r1, [pc, #68]	; (23fbe6c <setup+0x90>)
 23fbe26:	f000 ffa9 	bl	23fcd7c <_ZN10CloudClass17register_functionEPFiPvPKcS0_ES0_S2_>
 23fbe2a:	4911      	ldr	r1, [pc, #68]	; (23fbe70 <setup+0x94>)
 23fbe2c:	4620      	mov	r0, r4
 23fbe2e:	4a11      	ldr	r2, [pc, #68]	; (23fbe74 <setup+0x98>)
 23fbe30:	f000 ffa4 	bl	23fcd7c <_ZN10CloudClass17register_functionEPFiPvPKcS0_ES0_S2_>
  Serial.println("Setup complete.");
 23fbe34:	f001 fc1a 	bl	23fd66c <_Z16_fetch_usbserialv>
}
 23fbe38:	e8bd 4010 	ldmia.w	sp!, {r4, lr}
  Serial.println("Setup complete.");
 23fbe3c:	490e      	ldr	r1, [pc, #56]	; (23fbe78 <setup+0x9c>)
 23fbe3e:	f001 b9de 	b.w	23fd1fe <_ZN5Print7printlnEPKc>
 23fbe42:	bf00      	nop
 23fbe44:	1007aeec 	.word	0x1007aeec
 23fbe48:	1007ad00 	.word	0x1007ad00
 23fbe4c:	1007af08 	.word	0x1007af08
 23fbe50:	023ff9bb 	.word	0x023ff9bb
 23fbe54:	023fcd51 	.word	0x023fcd51
 23fbe58:	1007acf8 	.word	0x1007acf8
 23fbe5c:	023ff9c1 	.word	0x023ff9c1
 23fbe60:	1007acf4 	.word	0x1007acf4
 23fbe64:	023ff9cc 	.word	0x023ff9cc
 23fbe68:	023ff9d1 	.word	0x023ff9d1
 23fbe6c:	023fbd85 	.word	0x023fbd85
 23fbe70:	023fbd2d 	.word	0x023fbd2d
 23fbe74:	023ff9dc 	.word	0x023ff9dc
 23fbe78:	023ff9ed 	.word	0x023ff9ed
 23fbe7c:	00000000 	.word	0x00000000

023fbe80 <loop>:
void loop() {
 23fbe80:	e92d 43f8 	stmdb	sp!, {r3, r4, r5, r6, r7, r8, r9, lr}
  int ADCreading = analogRead(tempPIN);
 23fbe84:	4b7c      	ldr	r3, [pc, #496]	; (23fc078 <loop+0x1f8>)
  tempC = (ADCreading - 620) * 0.0806;
 23fbe86:	4d7d      	ldr	r5, [pc, #500]	; (23fc07c <loop+0x1fc>)
  int ADCreading = analogRead(tempPIN);
 23fbe88:	8818      	ldrh	r0, [r3, #0]
 23fbe8a:	f001 fd7a 	bl	23fd982 <analogRead>
  tempC = (ADCreading - 620) * 0.0806;
 23fbe8e:	f5a0 701b 	sub.w	r0, r0, #620	; 0x26c
 23fbe92:	f7ff fb2f 	bl	23fb4f4 <__aeabi_i2d>
 23fbe96:	a374      	add	r3, pc, #464	; (adr r3, 23fc068 <loop+0x1e8>)
 23fbe98:	e9d3 2300 	ldrd	r2, r3, [r3]
 23fbe9c:	f7ff fb94 	bl	23fb5c8 <__aeabi_dmul>
 23fbea0:	e9c5 0100 	strd	r0, r1, [r5]
  delay(500);
 23fbea4:	f44f 70fa 	mov.w	r0, #500	; 0x1f4
 23fbea8:	f001 fc42 	bl	23fd730 <delay>
  Serial.print("Temp C: ");
 23fbeac:	f001 fbde 	bl	23fd66c <_Z16_fetch_usbserialv>
 23fbeb0:	4973      	ldr	r1, [pc, #460]	; (23fc080 <loop+0x200>)
 23fbeb2:	f001 f991 	bl	23fd1d8 <_ZN5Print5printEPKc>
  Serial.println(tempC);  
 23fbeb6:	f001 fbd9 	bl	23fd66c <_Z16_fetch_usbserialv>
 23fbeba:	e9d5 6700 	ldrd	r6, r7, [r5]
 23fbebe:	4604      	mov	r4, r0
    static constexpr auto FLOAT_DEFAULT_FRACTIONAL_DIGITS = 2;

    size_t printFloat(double number, uint8_t digits) {
        size_t n = 0;

        if (std::isnan(number)) {
 23fbec0:	4632      	mov	r2, r6
 23fbec2:	463b      	mov	r3, r7
 23fbec4:	4630      	mov	r0, r6
 23fbec6:	4639      	mov	r1, r7
 23fbec8:	f7ff fe18 	bl	23fbafc <__aeabi_dcmpun>
 23fbecc:	b3a8      	cbz	r0, 23fbf3a <loop+0xba>
            return print("nan");
 23fbece:	496d      	ldr	r1, [pc, #436]	; (23fc084 <loop+0x204>)
        }
        if (std::isinf(number)) {
            return print("inf");
 23fbed0:	4620      	mov	r0, r4
 23fbed2:	f001 f981 	bl	23fd1d8 <_ZN5Print5printEPKc>
        return println((double)num, digits);
    }

    size_t println(double num, int digits = FLOAT_DEFAULT_FRACTIONAL_DIGITS) {
        size_t n = print(num, digits);
        n += println();
 23fbed6:	4620      	mov	r0, r4
 23fbed8:	f001 f985 	bl	23fd1e6 <_ZN5Print7printlnEv>
  Serial.print("Current mode: ");
 23fbedc:	f001 fbc6 	bl	23fd66c <_Z16_fetch_usbserialv>
 23fbee0:	4969      	ldr	r1, [pc, #420]	; (23fc088 <loop+0x208>)
 23fbee2:	f001 f979 	bl	23fd1d8 <_ZN5Print5printEPKc>
  Serial.println(mode);  
 23fbee6:	f001 fbc1 	bl	23fd66c <_Z16_fetch_usbserialv>
 23fbeea:	4e68      	ldr	r6, [pc, #416]	; (23fc08c <loop+0x20c>)
 23fbeec:	4605      	mov	r5, r0
 23fbeee:	6834      	ldr	r4, [r6, #0]
// FIXME: avoids 'comparison of constant '0' with boolean expression is always false'
#if __GNUC__ >= 9
#pragma GCC diagnostic push
#pragma GCC diagnostic ignored "-Wbool-compare"
#endif // __GNUC__ >= 9
        if (n < 0 && base == 10) {
 23fbef0:	2c00      	cmp	r4, #0
 23fbef2:	f280 80aa 	bge.w	23fc04a <loop+0x1ca>
            t = print('-');
 23fbef6:	212d      	movs	r1, #45	; 0x2d
 23fbef8:	f001 f972 	bl	23fd1e0 <_ZN5Print5printEc>
            val = -n;
 23fbefc:	4261      	negs	r1, r4
            val = n;
        }
#if __GNUC__ >= 9
#pragma GCC diagnostic pop
#endif // __GNUC__ >= 9
        return printNumber(val, base) + t;
 23fbefe:	220a      	movs	r2, #10
 23fbf00:	4628      	mov	r0, r5
 23fbf02:	f001 f986 	bl	23fd212 <_ZN5Print11printNumberEmh>
        n += println();
 23fbf06:	4628      	mov	r0, r5
 23fbf08:	f001 f96d 	bl	23fd1e6 <_ZN5Print7printlnEv>
  Serial.println();
 23fbf0c:	f001 fbae 	bl	23fd66c <_Z16_fetch_usbserialv>
 23fbf10:	f001 f969 	bl	23fd1e6 <_ZN5Print7printlnEv>
  if (mode == COOL) {
 23fbf14:	6834      	ldr	r4, [r6, #0]
 23fbf16:	2c00      	cmp	r4, #0
 23fbf18:	f040 8099 	bne.w	23fc04e <loop+0x1ce>
    strip.setPixelColor(0, strip.Color(0, 0, 255));
 23fbf1c:	22ff      	movs	r2, #255	; 0xff
 23fbf1e:	4621      	mov	r1, r4
 23fbf20:	4620      	mov	r0, r4
    strip.setPixelColor(0, strip.Color(0, 0, 0));
 23fbf22:	f000 fae6 	bl	23fc4f2 <_ZN17Adafruit_NeoPixel5ColorEhhh>
 23fbf26:	2100      	movs	r1, #0
 23fbf28:	4602      	mov	r2, r0
 23fbf2a:	4859      	ldr	r0, [pc, #356]	; (23fc090 <loop+0x210>)
 23fbf2c:	f000 fa9e 	bl	23fc46c <_ZN17Adafruit_NeoPixel13setPixelColorEtm>
}
 23fbf30:	e8bd 43f8 	ldmia.w	sp!, {r3, r4, r5, r6, r7, r8, r9, lr}
  strip.show();
 23fbf34:	4856      	ldr	r0, [pc, #344]	; (23fc090 <loop+0x210>)
 23fbf36:	f000 b98f 	b.w	23fc258 <_ZN17Adafruit_NeoPixel4showEv>
  && !_GLIBCXX_NO_OBSOLETE_ISINF_ISNAN_DYNAMIC
  using ::isinf;
#else
  constexpr bool
  isinf(double __x)
  { return __builtin_isinf(__x); }
 23fbf3a:	f027 4900 	bic.w	r9, r7, #2147483648	; 0x80000000
        if (std::isinf(number)) {
 23fbf3e:	f04f 32ff 	mov.w	r2, #4294967295	; 0xffffffff
 23fbf42:	4630      	mov	r0, r6
 23fbf44:	4649      	mov	r1, r9
 23fbf46:	4b53      	ldr	r3, [pc, #332]	; (23fc094 <loop+0x214>)
 23fbf48:	f7ff fdd8 	bl	23fbafc <__aeabi_dcmpun>
 23fbf4c:	b948      	cbnz	r0, 23fbf62 <loop+0xe2>
 23fbf4e:	f04f 32ff 	mov.w	r2, #4294967295	; 0xffffffff
 23fbf52:	4630      	mov	r0, r6
 23fbf54:	4649      	mov	r1, r9
 23fbf56:	4b4f      	ldr	r3, [pc, #316]	; (23fc094 <loop+0x214>)
 23fbf58:	f7ff fdb2 	bl	23fbac0 <__aeabi_dcmple>
 23fbf5c:	b908      	cbnz	r0, 23fbf62 <loop+0xe2>
            return print("inf");
 23fbf5e:	494e      	ldr	r1, [pc, #312]	; (23fc098 <loop+0x218>)
 23fbf60:	e7b6      	b.n	23fbed0 <loop+0x50>
        if (number > 4294967040.0) {
 23fbf62:	f04f 4260 	mov.w	r2, #3758096384	; 0xe0000000
 23fbf66:	4630      	mov	r0, r6
 23fbf68:	4639      	mov	r1, r7
 23fbf6a:	4b4c      	ldr	r3, [pc, #304]	; (23fc09c <loop+0x21c>)
 23fbf6c:	f7ff fdbc 	bl	23fbae8 <__aeabi_dcmpgt>
 23fbf70:	b108      	cbz	r0, 23fbf76 <loop+0xf6>
            return print ("ovf"); // constant determined empirically
 23fbf72:	494b      	ldr	r1, [pc, #300]	; (23fc0a0 <loop+0x220>)
 23fbf74:	e7ac      	b.n	23fbed0 <loop+0x50>
        if (number <-4294967040.0) {
 23fbf76:	f04f 4260 	mov.w	r2, #3758096384	; 0xe0000000
 23fbf7a:	4630      	mov	r0, r6
 23fbf7c:	4639      	mov	r1, r7
 23fbf7e:	4b49      	ldr	r3, [pc, #292]	; (23fc0a4 <loop+0x224>)
 23fbf80:	f7ff fd94 	bl	23fbaac <__aeabi_dcmplt>
 23fbf84:	2800      	cmp	r0, #0
 23fbf86:	d1f4      	bne.n	23fbf72 <loop+0xf2>
        if (number < 0.0) {
 23fbf88:	2200      	movs	r2, #0
 23fbf8a:	2300      	movs	r3, #0
 23fbf8c:	4630      	mov	r0, r6
 23fbf8e:	4639      	mov	r1, r7
 23fbf90:	f7ff fd8c 	bl	23fbaac <__aeabi_dcmplt>
 23fbf94:	b130      	cbz	r0, 23fbfa4 <loop+0x124>
            n += print('-');
 23fbf96:	212d      	movs	r1, #45	; 0x2d
 23fbf98:	4620      	mov	r0, r4
 23fbf9a:	f001 f921 	bl	23fd1e0 <_ZN5Print5printEc>
            number = -number;
 23fbf9e:	f107 4300 	add.w	r3, r7, #2147483648	; 0x80000000
 23fbfa2:	461f      	mov	r7, r3
        number += rounding;
 23fbfa4:	a332      	add	r3, pc, #200	; (adr r3, 23fc070 <loop+0x1f0>)
 23fbfa6:	e9d3 2300 	ldrd	r2, r3, [r3]
 23fbfaa:	4630      	mov	r0, r6
 23fbfac:	4639      	mov	r1, r7
 23fbfae:	f7ff f955 	bl	23fb25c <__adddf3>
 23fbfb2:	460f      	mov	r7, r1
 23fbfb4:	4606      	mov	r6, r0
        unsigned long int_part = (unsigned long)number;
 23fbfb6:	f7ff fddf 	bl	23fbb78 <__aeabi_d2uiz>
 23fbfba:	4605      	mov	r5, r0
        double remainder = number - (double)int_part;
 23fbfbc:	f7ff fa8a 	bl	23fb4d4 <__aeabi_ui2d>
 23fbfc0:	460b      	mov	r3, r1
 23fbfc2:	4602      	mov	r2, r0
 23fbfc4:	4639      	mov	r1, r7
 23fbfc6:	4630      	mov	r0, r6
 23fbfc8:	f7ff f946 	bl	23fb258 <__aeabi_dsub>
 23fbfcc:	4606      	mov	r6, r0
 23fbfce:	460f      	mov	r7, r1
        return printNumber(val, base) + t;
 23fbfd0:	220a      	movs	r2, #10
 23fbfd2:	4629      	mov	r1, r5
 23fbfd4:	4620      	mov	r0, r4
 23fbfd6:	f001 f91c 	bl	23fd212 <_ZN5Print11printNumberEmh>
            n += print(".");
 23fbfda:	4933      	ldr	r1, [pc, #204]	; (23fc0a8 <loop+0x228>)
 23fbfdc:	4620      	mov	r0, r4
 23fbfde:	f001 f8fb 	bl	23fd1d8 <_ZN5Print5printEPKc>
            remainder *= 10.0;
 23fbfe2:	2200      	movs	r2, #0
 23fbfe4:	4630      	mov	r0, r6
 23fbfe6:	4639      	mov	r1, r7
 23fbfe8:	4b30      	ldr	r3, [pc, #192]	; (23fc0ac <loop+0x22c>)
 23fbfea:	f7ff faed 	bl	23fb5c8 <__aeabi_dmul>
 23fbfee:	4606      	mov	r6, r0
 23fbff0:	460f      	mov	r7, r1
            int toPrint = int(remainder);
 23fbff2:	f7ff fd99 	bl	23fbb28 <__aeabi_d2iz>
        if (n < 0 && base == 10) {
 23fbff6:	1e05      	subs	r5, r0, #0
 23fbff8:	db1b      	blt.n	23fc032 <loop+0x1b2>
            val = n;
 23fbffa:	4629      	mov	r1, r5
        return printNumber(val, base) + t;
 23fbffc:	220a      	movs	r2, #10
 23fbffe:	4620      	mov	r0, r4
 23fc000:	f001 f907 	bl	23fd212 <_ZN5Print11printNumberEmh>
            remainder -= toPrint;
 23fc004:	4628      	mov	r0, r5
 23fc006:	f7ff fa75 	bl	23fb4f4 <__aeabi_i2d>
 23fc00a:	4602      	mov	r2, r0
 23fc00c:	460b      	mov	r3, r1
 23fc00e:	4630      	mov	r0, r6
 23fc010:	4639      	mov	r1, r7
 23fc012:	f7ff f921 	bl	23fb258 <__aeabi_dsub>
            remainder *= 10.0;
 23fc016:	2200      	movs	r2, #0
 23fc018:	4b24      	ldr	r3, [pc, #144]	; (23fc0ac <loop+0x22c>)
 23fc01a:	f7ff fad5 	bl	23fb5c8 <__aeabi_dmul>
            int toPrint = int(remainder);
 23fc01e:	f7ff fd83 	bl	23fbb28 <__aeabi_d2iz>
        if (n < 0 && base == 10) {
 23fc022:	1e05      	subs	r5, r0, #0
 23fc024:	db0b      	blt.n	23fc03e <loop+0x1be>
            val = n;
 23fc026:	4629      	mov	r1, r5
        return printNumber(val, base) + t;
 23fc028:	220a      	movs	r2, #10
 23fc02a:	4620      	mov	r0, r4
 23fc02c:	f001 f8f1 	bl	23fd212 <_ZN5Print11printNumberEmh>
        while (digits-- > 0) {
 23fc030:	e751      	b.n	23fbed6 <loop+0x56>
            t = print('-');
 23fc032:	212d      	movs	r1, #45	; 0x2d
 23fc034:	4620      	mov	r0, r4
 23fc036:	f001 f8d3 	bl	23fd1e0 <_ZN5Print5printEc>
            val = -n;
 23fc03a:	4269      	negs	r1, r5
 23fc03c:	e7de      	b.n	23fbffc <loop+0x17c>
            t = print('-');
 23fc03e:	212d      	movs	r1, #45	; 0x2d
 23fc040:	4620      	mov	r0, r4
 23fc042:	f001 f8cd 	bl	23fd1e0 <_ZN5Print5printEc>
            val = -n;
 23fc046:	4269      	negs	r1, r5
 23fc048:	e7ee      	b.n	23fc028 <loop+0x1a8>
            val = n;
 23fc04a:	4621      	mov	r1, r4
 23fc04c:	e757      	b.n	23fbefe <loop+0x7e>
  } else if (mode == HEAT) {
 23fc04e:	2c02      	cmp	r4, #2
    strip.setPixelColor(0, strip.Color(165, 225, 0));
 23fc050:	f04f 0200 	mov.w	r2, #0
  } else if (mode == HEAT) {
 23fc054:	d102      	bne.n	23fc05c <loop+0x1dc>
    strip.setPixelColor(0, strip.Color(165, 225, 0));
 23fc056:	21e1      	movs	r1, #225	; 0xe1
 23fc058:	20a5      	movs	r0, #165	; 0xa5
 23fc05a:	e762      	b.n	23fbf22 <loop+0xa2>
  } else if (mode == REDALERT) {
 23fc05c:	2c03      	cmp	r4, #3
    strip.setPixelColor(0, strip.Color(0, 255, 0));
 23fc05e:	bf0c      	ite	eq
 23fc060:	21ff      	moveq	r1, #255	; 0xff
    strip.setPixelColor(0, strip.Color(0, 0, 0));
 23fc062:	4611      	movne	r1, r2
 23fc064:	4610      	mov	r0, r2
 23fc066:	e75c      	b.n	23fbf22 <loop+0xa2>
 23fc068:	9c0ebee0 	.word	0x9c0ebee0
 23fc06c:	3fb4a233 	.word	0x3fb4a233
 23fc070:	47ae147b 	.word	0x47ae147b
 23fc074:	3f747ae1 	.word	0x3f747ae1
 23fc078:	1007ad00 	.word	0x1007ad00
 23fc07c:	1007af08 	.word	0x1007af08
 23fc080:	023ff9fd 	.word	0x023ff9fd
 23fc084:	023ffa06 	.word	0x023ffa06
 23fc088:	023ffa12 	.word	0x023ffa12
 23fc08c:	1007acf4 	.word	0x1007acf4
 23fc090:	1007aeec 	.word	0x1007aeec
 23fc094:	7fefffff 	.word	0x7fefffff
 23fc098:	023ffa0a 	.word	0x023ffa0a
 23fc09c:	41efffff 	.word	0x41efffff
 23fc0a0:	023ffa0e 	.word	0x023ffa0e
 23fc0a4:	c1efffff 	.word	0xc1efffff
 23fc0a8:	023ff9fb 	.word	0x023ff9fb
 23fc0ac:	40240000 	.word	0x40240000

023fc0b0 <_GLOBAL__sub_I_PIXEL_COUNT>:
}
 23fc0b0:	b537      	push	{r0, r1, r2, r4, r5, lr}
Adafruit_NeoPixel strip(PIXEL_COUNT, PIXEL_PIN, PIXEL_TYPE);
 23fc0b2:	4b0f      	ldr	r3, [pc, #60]	; (23fc0f0 <_GLOBAL__sub_I_PIXEL_COUNT+0x40>)

template <hal_spi_interface_t Interface>
class SpiProxy {
public:
    static SPIClass& instance() {
        static SPIClass instance(Interface);
 23fc0b4:	4c0f      	ldr	r4, [pc, #60]	; (23fc0f4 <_GLOBAL__sub_I_PIXEL_COUNT+0x44>)
 23fc0b6:	881d      	ldrh	r5, [r3, #0]
 23fc0b8:	e8d4 1f8f 	ldab	r1, [r4]
 23fc0bc:	f011 0101 	ands.w	r1, r1, #1
 23fc0c0:	d10b      	bne.n	23fc0da <_GLOBAL__sub_I_PIXEL_COUNT+0x2a>
 23fc0c2:	4620      	mov	r0, r4
 23fc0c4:	9101      	str	r1, [sp, #4]
 23fc0c6:	f000 fe17 	bl	23fccf8 <__cxa_guard_acquire>
 23fc0ca:	9901      	ldr	r1, [sp, #4]
 23fc0cc:	b128      	cbz	r0, 23fc0da <_GLOBAL__sub_I_PIXEL_COUNT+0x2a>
 23fc0ce:	480a      	ldr	r0, [pc, #40]	; (23fc0f8 <_GLOBAL__sub_I_PIXEL_COUNT+0x48>)
 23fc0d0:	f001 f8ca 	bl	23fd268 <_ZN8SPIClassC1E19hal_spi_interface_t>
 23fc0d4:	4620      	mov	r0, r4
 23fc0d6:	f000 fe1d 	bl	23fcd14 <__cxa_guard_release>
 23fc0da:	4629      	mov	r1, r5
 23fc0dc:	4b07      	ldr	r3, [pc, #28]	; (23fc0fc <_GLOBAL__sub_I_PIXEL_COUNT+0x4c>)
 23fc0de:	4a06      	ldr	r2, [pc, #24]	; (23fc0f8 <_GLOBAL__sub_I_PIXEL_COUNT+0x48>)
 23fc0e0:	781b      	ldrb	r3, [r3, #0]
 23fc0e2:	4807      	ldr	r0, [pc, #28]	; (23fc100 <_GLOBAL__sub_I_PIXEL_COUNT+0x50>)
}
 23fc0e4:	b003      	add	sp, #12
 23fc0e6:	e8bd 4030 	ldmia.w	sp!, {r4, r5, lr}
Adafruit_NeoPixel strip(PIXEL_COUNT, PIXEL_PIN, PIXEL_TYPE);
 23fc0ea:	f000 b840 	b.w	23fc16e <_ZN17Adafruit_NeoPixelC1EtR8SPIClassh>
 23fc0ee:	bf00      	nop
 23fc0f0:	1007acec 	.word	0x1007acec
 23fc0f4:	1007aee0 	.word	0x1007aee0
 23fc0f8:	1007aee4 	.word	0x1007aee4
 23fc0fc:	1007acf0 	.word	0x1007acf0
 23fc100:	1007aeec 	.word	0x1007aeec

023fc104 <_ZNK5spark6Logger5errorEPKcz>:
    va_start(args, fmt);
    log(LOG_LEVEL_WARN, fmt, args);
    va_end(args);
}

inline void spark::Logger::error(const char *fmt, ...) const {
 23fc104:	b40e      	push	{r1, r2, r3}
}

inline void spark::Logger::log(LogLevel level, const char *fmt, va_list args) const {
    LogAttributes attr;
    attr.size = sizeof(LogAttributes);
    attr.flags = 0;
 23fc106:	f04f 0c20 	mov.w	ip, #32
 23fc10a:	2300      	movs	r3, #0
inline void spark::Logger::error(const char *fmt, ...) const {
 23fc10c:	b500      	push	{lr}
 23fc10e:	b08c      	sub	sp, #48	; 0x30
 23fc110:	aa0d      	add	r2, sp, #52	; 0x34
 23fc112:	f852 1b04 	ldr.w	r1, [r2], #4
    attr.flags = 0;
 23fc116:	e9cd c304 	strd	ip, r3, [sp, #16]
    log_message_v(level, name_, &attr, nullptr, fmt, args);
 23fc11a:	e9cd 1200 	strd	r1, r2, [sp]
    va_start(args, fmt);
 23fc11e:	9203      	str	r2, [sp, #12]
    log_message_v(level, name_, &attr, nullptr, fmt, args);
 23fc120:	6801      	ldr	r1, [r0, #0]
 23fc122:	aa04      	add	r2, sp, #16
 23fc124:	2032      	movs	r0, #50	; 0x32
 23fc126:	f000 fc5f 	bl	23fc9e8 <log_message_v>
}
 23fc12a:	b00c      	add	sp, #48	; 0x30
 23fc12c:	f85d eb04 	ldr.w	lr, [sp], #4
 23fc130:	b003      	add	sp, #12
 23fc132:	4770      	bx	lr

023fc134 <_ZN17Adafruit_NeoPixel12updateLengthEt>:

uint8_t Adafruit_NeoPixel::getType() const {
    return type;
}

void Adafruit_NeoPixel::updateLength(uint16_t n) {
 23fc134:	b538      	push	{r3, r4, r5, lr}
 23fc136:	4604      	mov	r4, r0
  if (pixels) free(pixels); // Free existing data (if any)
 23fc138:	68c0      	ldr	r0, [r0, #12]
void Adafruit_NeoPixel::updateLength(uint16_t n) {
 23fc13a:	460d      	mov	r5, r1
  if (pixels) free(pixels); // Free existing data (if any)
 23fc13c:	b108      	cbz	r0, 23fc142 <_ZN17Adafruit_NeoPixel12updateLengthEt+0xe>
 23fc13e:	f000 fd95 	bl	23fcc6c <free>

  // Allocate new data -- note: ALL PIXELS ARE CLEARED
  numBytes = n * ((type == SK6812RGBW) ? 4 : 3);
 23fc142:	79a3      	ldrb	r3, [r4, #6]
 23fc144:	2b06      	cmp	r3, #6
 23fc146:	bf0c      	ite	eq
 23fc148:	2004      	moveq	r0, #4
 23fc14a:	2003      	movne	r0, #3
 23fc14c:	fb10 f005 	smulbb	r0, r0, r5
 23fc150:	b280      	uxth	r0, r0
 23fc152:	80a0      	strh	r0, [r4, #4]
  if ((pixels = (uint8_t *)malloc(numBytes))) {
 23fc154:	f000 fd7c 	bl	23fcc50 <malloc>
 23fc158:	60e0      	str	r0, [r4, #12]
 23fc15a:	b128      	cbz	r0, 23fc168 <_ZN17Adafruit_NeoPixel12updateLengthEt+0x34>
    memset(pixels, 0, numBytes);
 23fc15c:	2100      	movs	r1, #0
 23fc15e:	88a2      	ldrh	r2, [r4, #4]
 23fc160:	f001 fd38 	bl	23fdbd4 <memset>
    numLEDs = n;
 23fc164:	8065      	strh	r5, [r4, #2]
  } else {
    numLEDs = numBytes = 0;
  }
}
 23fc166:	bd38      	pop	{r3, r4, r5, pc}
    numLEDs = numBytes = 0;
 23fc168:	80a0      	strh	r0, [r4, #4]
 23fc16a:	8060      	strh	r0, [r4, #2]
}
 23fc16c:	e7fb      	b.n	23fc166 <_ZN17Adafruit_NeoPixel12updateLengthEt+0x32>

023fc16e <_ZN17Adafruit_NeoPixelC1EtR8SPIClassh>:
Adafruit_NeoPixel::Adafruit_NeoPixel(uint16_t n, SPIClass& spi, uint8_t t) :
 23fc16e:	b570      	push	{r4, r5, r6, lr}
  begun(false), type(t), brightness(0), pixels(NULL), endTime(0)
 23fc170:	2500      	movs	r5, #0
Adafruit_NeoPixel::Adafruit_NeoPixel(uint16_t n, SPIClass& spi, uint8_t t) :
 23fc172:	4604      	mov	r4, r0
 23fc174:	4616      	mov	r6, r2
  begun(false), type(t), brightness(0), pixels(NULL), endTime(0)
 23fc176:	e9c0 5503 	strd	r5, r5, [r0, #12]
 23fc17a:	7005      	strb	r5, [r0, #0]
 23fc17c:	7183      	strb	r3, [r0, #6]
 23fc17e:	7205      	strb	r5, [r0, #8]
  updateLength(n);
 23fc180:	f7ff ffd8 	bl	23fc134 <_ZN17Adafruit_NeoPixel12updateLengthEt>
}
 23fc184:	4620      	mov	r0, r4
  spi_ = &spi;
 23fc186:	6166      	str	r6, [r4, #20]
}
 23fc188:	bd70      	pop	{r4, r5, r6, pc}
	...

023fc18c <_ZN17Adafruit_NeoPixel5beginEv>:

void Adafruit_NeoPixel::begin(void) {
 23fc18c:	e92d 4ff7 	stmdb	sp!, {r0, r1, r2, r4, r5, r6, r7, r8, r9, sl, fp, lr}
#if (PLATFORM_ID == 32)
  if (getType() == WS2812B) {
 23fc190:	7983      	ldrb	r3, [r0, #6]
void Adafruit_NeoPixel::begin(void) {
 23fc192:	4604      	mov	r4, r0
  if (getType() == WS2812B) {
 23fc194:	2b02      	cmp	r3, #2
 23fc196:	d14e      	bne.n	23fc236 <_ZN17Adafruit_NeoPixel5beginEv+0xaa>
  // Prevent copying
  SPIClass(const SPIClass&) = delete;
  SPIClass& operator=(const SPIClass&) = delete;

  hal_spi_interface_t interface() const {
    return _spi;
 23fc198:	6943      	ldr	r3, [r0, #20]
 23fc19a:	781b      	ldrb	r3, [r3, #0]
    if (spi_->interface() >= HAL_PLATFORM_SPI_NUM) {
 23fc19c:	2b01      	cmp	r3, #1
 23fc19e:	d906      	bls.n	23fc1ae <_ZN17Adafruit_NeoPixel5beginEv+0x22>
      Log.error("SPI/SPI1 interface not defined!");
 23fc1a0:	4929      	ldr	r1, [pc, #164]	; (23fc248 <_ZN17Adafruit_NeoPixel5beginEv+0xbc>)
 23fc1a2:	482a      	ldr	r0, [pc, #168]	; (23fc24c <_ZN17Adafruit_NeoPixel5beginEv+0xc0>)
 23fc1a4:	f7ff ffae 	bl	23fc104 <_ZNK5spark6Logger5errorEPKcz>
#else
  pinMode(pin, OUTPUT);
  digitalWrite(pin, LOW);
#endif // #if (PLATFORM_ID == 32)
  begun = true;
}
 23fc1a8:	b003      	add	sp, #12
 23fc1aa:	e8bd 8ff0 	ldmia.w	sp!, {r4, r5, r6, r7, r8, r9, sl, fp, pc}
      misoPin = MISO1;
 23fc1ae:	2b00      	cmp	r3, #0
 23fc1b0:	bf0c      	ite	eq
 23fc1b2:	f04f 0911 	moveq.w	r9, #17
 23fc1b6:	f04f 0904 	movne.w	r9, #4
    PinMode sckPinMode = getPinMode(sckPin);
 23fc1ba:	4648      	mov	r0, r9
      misoPin = MISO1;
 23fc1bc:	bf0c      	ite	eq
 23fc1be:	2710      	moveq	r7, #16
 23fc1c0:	2703      	movne	r7, #3
    PinMode sckPinMode = getPinMode(sckPin);
 23fc1c2:	f001 fb61 	bl	23fd888 <getPinMode>
 23fc1c6:	4606      	mov	r6, r0
    PinMode misoPinMode = getPinMode(misoPin);
 23fc1c8:	4638      	mov	r0, r7
 23fc1ca:	f001 fb5d 	bl	23fd888 <getPinMode>
    int sckValue = (sckPinMode == OUTPUT) ? digitalRead(sckPin) : 0;
 23fc1ce:	2e01      	cmp	r6, #1
    PinMode misoPinMode = getPinMode(misoPin);
 23fc1d0:	4605      	mov	r5, r0
    int sckValue = (sckPinMode == OUTPUT) ? digitalRead(sckPin) : 0;
 23fc1d2:	d133      	bne.n	23fc23c <_ZN17Adafruit_NeoPixel5beginEv+0xb0>
 23fc1d4:	4648      	mov	r0, r9
 23fc1d6:	f001 fbc1 	bl	23fd95c <digitalRead>
 23fc1da:	4682      	mov	sl, r0
    int misoValue = (misoPinMode == OUTPUT) ? digitalRead(misoPin) : 0;
 23fc1dc:	2d01      	cmp	r5, #1
 23fc1de:	d130      	bne.n	23fc242 <_ZN17Adafruit_NeoPixel5beginEv+0xb6>
 23fc1e0:	4638      	mov	r0, r7
 23fc1e2:	f001 fbbb 	bl	23fd95c <digitalRead>
 23fc1e6:	4680      	mov	r8, r0
    spi_config.flags = (uint32_t)HAL_SPI_CONFIG_FLAG_MOSI_ONLY;
 23fc1e8:	f04f 0b01 	mov.w	fp, #1
 23fc1ec:	4b18      	ldr	r3, [pc, #96]	; (23fc250 <_ZN17Adafruit_NeoPixel5beginEv+0xc4>)
 23fc1ee:	6960      	ldr	r0, [r4, #20]
 23fc1f0:	e9cd 3b00 	strd	r3, fp, [sp]
    hal_spi_begin_ext(spi_->interface(), SPI_MODE_MASTER, PIN_INVALID, &spi_config);
 23fc1f4:	22ff      	movs	r2, #255	; 0xff
 23fc1f6:	466b      	mov	r3, sp
 23fc1f8:	2100      	movs	r1, #0
 23fc1fa:	7800      	ldrb	r0, [r0, #0]
 23fc1fc:	f000 faea 	bl	23fc7d4 <hal_spi_begin_ext>
    spi_->setClockSpeed(3125000); // DVOS 5.7.0 requires setClockSpeed() to be set after begin()
 23fc200:	465a      	mov	r2, fp
 23fc202:	4914      	ldr	r1, [pc, #80]	; (23fc254 <_ZN17Adafruit_NeoPixel5beginEv+0xc8>)
 23fc204:	6960      	ldr	r0, [r4, #20]
 23fc206:	f001 f855 	bl	23fd2b4 <_ZN8SPIClass13setClockSpeedEjj>
    pinMode(sckPin, sckPinMode);
 23fc20a:	4631      	mov	r1, r6
 23fc20c:	4648      	mov	r0, r9
 23fc20e:	f001 fb7b 	bl	23fd908 <pinMode>
    pinMode(misoPin, misoPinMode);
 23fc212:	4629      	mov	r1, r5
 23fc214:	4638      	mov	r0, r7
 23fc216:	f001 fb77 	bl	23fd908 <pinMode>
    if (sckPinMode == OUTPUT) {
 23fc21a:	455e      	cmp	r6, fp
 23fc21c:	d104      	bne.n	23fc228 <_ZN17Adafruit_NeoPixel5beginEv+0x9c>
      digitalWrite(sckPin, sckValue);
 23fc21e:	4648      	mov	r0, r9
 23fc220:	fa5f f18a 	uxtb.w	r1, sl
 23fc224:	f001 fb81 	bl	23fd92a <digitalWrite>
    if (misoPinMode == OUTPUT) {
 23fc228:	2d01      	cmp	r5, #1
 23fc22a:	d104      	bne.n	23fc236 <_ZN17Adafruit_NeoPixel5beginEv+0xaa>
      digitalWrite(misoPin, misoValue);
 23fc22c:	4638      	mov	r0, r7
 23fc22e:	fa5f f188 	uxtb.w	r1, r8
 23fc232:	f001 fb7a 	bl	23fd92a <digitalWrite>
  begun = true;
 23fc236:	2301      	movs	r3, #1
 23fc238:	7023      	strb	r3, [r4, #0]
 23fc23a:	e7b5      	b.n	23fc1a8 <_ZN17Adafruit_NeoPixel5beginEv+0x1c>
    int sckValue = (sckPinMode == OUTPUT) ? digitalRead(sckPin) : 0;
 23fc23c:	f04f 0a00 	mov.w	sl, #0
 23fc240:	e7cc      	b.n	23fc1dc <_ZN17Adafruit_NeoPixel5beginEv+0x50>
    int misoValue = (misoPinMode == OUTPUT) ? digitalRead(misoPin) : 0;
 23fc242:	f04f 0800 	mov.w	r8, #0
 23fc246:	e7cf      	b.n	23fc1e8 <_ZN17Adafruit_NeoPixel5beginEv+0x5c>
 23fc248:	023ffa21 	.word	0x023ffa21
 23fc24c:	1007af3c 	.word	0x1007af3c
 23fc250:	000a0008 	.word	0x000a0008
 23fc254:	002faf08 	.word	0x002faf08

023fc258 <_ZN17Adafruit_NeoPixel4showEv>:
        digitalWrite(p, LOW);
    }
}

void Adafruit_NeoPixel::show(void) {
  if(!pixels) return;
 23fc258:	68c3      	ldr	r3, [r0, #12]
 23fc25a:	2b00      	cmp	r3, #0
 23fc25c:	f000 80fc 	beq.w	23fc458 <_ZN17Adafruit_NeoPixel4showEv+0x200>
void Adafruit_NeoPixel::show(void) {
 23fc260:	b570      	push	{r4, r5, r6, lr}
    return type;
 23fc262:	7983      	ldrb	r3, [r0, #6]
 23fc264:	4604      	mov	r4, r0
  }

  __enable_irq();

#elif (PLATFORM_ID == 32)
  if (getType() != WS2812B) { // WS2812 WS2812B and WS2813 supported for P2
 23fc266:	2b02      	cmp	r3, #2
void Adafruit_NeoPixel::show(void) {
 23fc268:	b082      	sub	sp, #8
  if (getType() != WS2812B) { // WS2812 WS2812B and WS2813 supported for P2
 23fc26a:	f040 80ef 	bne.w	23fc44c <_ZN17Adafruit_NeoPixel4showEv+0x1f4>
        resetOff = 20;
      } break;
  }

  constexpr uint8_t numBitsPerBit = 3; // How many SPI bits represent one neopixel bit
  uint32_t spiArraySize = (numBytes * numBitsPerBit) + resetOff + resetOff;
 23fc26e:	8886      	ldrh	r6, [r0, #4]
 23fc270:	eb06 0646 	add.w	r6, r6, r6, lsl #1
 23fc274:	36f0      	adds	r6, #240	; 0xf0
  uint8_t* spiArray = NULL;
  spiArray = (uint8_t*) malloc(spiArraySize);
 23fc276:	4630      	mov	r0, r6
 23fc278:	f000 fcea 	bl	23fcc50 <malloc>

  if (spiArray == NULL) {
 23fc27c:	4605      	mov	r5, r0
 23fc27e:	2800      	cmp	r0, #0
 23fc280:	f000 80eb 	beq.w	23fc45a <_ZN17Adafruit_NeoPixel4showEv+0x202>
    Log.error("Not enough memory available!");
    return;
  }

  memset(spiArray, 0, spiArraySize);
 23fc284:	4632      	mov	r2, r6
 23fc286:	2100      	movs	r1, #0
 23fc288:	f001 fca4 	bl	23fdbd4 <memset>
uint8_t *Adafruit_NeoPixel::getPixels(void) const {
  return pixels;
}

uint16_t Adafruit_NeoPixel::numPixels(void) const {
  return numLEDs;
 23fc28c:	8862      	ldrh	r2, [r4, #2]
  for (int x = 0; x < numPixels(); x++) {
 23fc28e:	2a00      	cmp	r2, #0
 23fc290:	f000 80c7 	beq.w	23fc422 <_ZN17Adafruit_NeoPixel4showEv+0x1ca>
 23fc294:	46ac      	mov	ip, r5
 23fc296:	eb02 02c2 	add.w	r2, r2, r2, lsl #3
 23fc29a:	68e1      	ldr	r1, [r4, #12]
 23fc29c:	442a      	add	r2, r5
      spiArray[(x*9)+(s*3)+0+resetOff] = ((0x80 & pixels[(x*3)+s])?(PIX_HI << 5):(PIX_LO << 5)) + ((0x40 & pixels[(x*3)+s])?(PIX_HI << 2):(PIX_LO << 2)) + ((0x20 & pixels[(x*3)+s])?(0b11):(0b10));
 23fc29e:	f991 3000 	ldrsb.w	r3, [r1]
 23fc2a2:	7808      	ldrb	r0, [r1, #0]
 23fc2a4:	2b00      	cmp	r3, #0
 23fc2a6:	bfb5      	itete	lt
 23fc2a8:	f04f 0ed0 	movlt.w	lr, #208	; 0xd0
 23fc2ac:	f04f 0e90 	movge.w	lr, #144	; 0x90
 23fc2b0:	23d8      	movlt	r3, #216	; 0xd8
 23fc2b2:	2398      	movge	r3, #152	; 0x98
 23fc2b4:	f010 0f40 	tst.w	r0, #64	; 0x40
 23fc2b8:	bf08      	it	eq
 23fc2ba:	4673      	moveq	r3, lr
 23fc2bc:	f010 0f20 	tst.w	r0, #32
 23fc2c0:	bf14      	ite	ne
 23fc2c2:	2003      	movne	r0, #3
 23fc2c4:	2002      	moveq	r0, #2
 23fc2c6:	4403      	add	r3, r0
 23fc2c8:	f88c 3078 	strb.w	r3, [ip, #120]	; 0x78
      spiArray[(x*9)+(s*3)+1+resetOff] = 0 /* bit 7 always 0 */ + ((0x10 & pixels[(x*3)+s])?(PIX_HI << 4):(PIX_LO << 4)) + ((0x08 & pixels[(x*3)+s])?(PIX_HI << 1):(PIX_LO << 1)) + 1 /* bit 0 always 1 */;
 23fc2cc:	7808      	ldrb	r0, [r1, #0]
  for (int x = 0; x < numPixels(); x++) {
 23fc2ce:	f10c 0c09 	add.w	ip, ip, #9
      spiArray[(x*9)+(s*3)+1+resetOff] = 0 /* bit 7 always 0 */ + ((0x10 & pixels[(x*3)+s])?(PIX_HI << 4):(PIX_LO << 4)) + ((0x08 & pixels[(x*3)+s])?(PIX_HI << 1):(PIX_LO << 1)) + 1 /* bit 0 always 1 */;
 23fc2d2:	f000 0310 	and.w	r3, r0, #16
 23fc2d6:	2b00      	cmp	r3, #0
 23fc2d8:	bf15      	itete	ne
 23fc2da:	f04f 0e69 	movne.w	lr, #105	; 0x69
 23fc2de:	f04f 0e49 	moveq.w	lr, #73	; 0x49
 23fc2e2:	236d      	movne	r3, #109	; 0x6d
 23fc2e4:	234d      	moveq	r3, #77	; 0x4d
 23fc2e6:	f010 0f08 	tst.w	r0, #8
 23fc2ea:	bf08      	it	eq
 23fc2ec:	4673      	moveq	r3, lr
 23fc2ee:	f88c 3070 	strb.w	r3, [ip, #112]	; 0x70
      spiArray[(x*9)+(s*3)+2+resetOff] = ((0x04 & pixels[(x*3)+s])?(0b10 << 6):(0b00 << 6)) + ((0x02 & pixels[(x*3)+s])?(PIX_HI << 3):(PIX_LO << 3)) + ((0x01 & pixels[(x*3)+s])?(PIX_HI):(PIX_LO));
 23fc2f2:	780b      	ldrb	r3, [r1, #0]
  for (int x = 0; x < numPixels(); x++) {
 23fc2f4:	3103      	adds	r1, #3
      spiArray[(x*9)+(s*3)+2+resetOff] = ((0x04 & pixels[(x*3)+s])?(0b10 << 6):(0b00 << 6)) + ((0x02 & pixels[(x*3)+s])?(PIX_HI << 3):(PIX_LO << 3)) + ((0x01 & pixels[(x*3)+s])?(PIX_HI):(PIX_LO));
 23fc2f6:	f013 0f02 	tst.w	r3, #2
 23fc2fa:	bf14      	ite	ne
 23fc2fc:	2030      	movne	r0, #48	; 0x30
 23fc2fe:	2020      	moveq	r0, #32
 23fc300:	f013 0f01 	tst.w	r3, #1
 23fc304:	bf0c      	ite	eq
 23fc306:	f04f 0e04 	moveq.w	lr, #4
 23fc30a:	f04f 0e06 	movne.w	lr, #6
 23fc30e:	015b      	lsls	r3, r3, #5
 23fc310:	f003 0380 	and.w	r3, r3, #128	; 0x80
 23fc314:	4403      	add	r3, r0
 23fc316:	4473      	add	r3, lr
 23fc318:	f88c 3071 	strb.w	r3, [ip, #113]	; 0x71
      spiArray[(x*9)+(s*3)+0+resetOff] = ((0x80 & pixels[(x*3)+s])?(PIX_HI << 5):(PIX_LO << 5)) + ((0x40 & pixels[(x*3)+s])?(PIX_HI << 2):(PIX_LO << 2)) + ((0x20 & pixels[(x*3)+s])?(0b11):(0b10));
 23fc31c:	f911 0c02 	ldrsb.w	r0, [r1, #-2]
 23fc320:	f811 3c02 	ldrb.w	r3, [r1, #-2]
 23fc324:	2800      	cmp	r0, #0
 23fc326:	bfb5      	itete	lt
 23fc328:	f04f 0ed0 	movlt.w	lr, #208	; 0xd0
 23fc32c:	f04f 0e90 	movge.w	lr, #144	; 0x90
 23fc330:	20d8      	movlt	r0, #216	; 0xd8
 23fc332:	2098      	movge	r0, #152	; 0x98
 23fc334:	f013 0f40 	tst.w	r3, #64	; 0x40
 23fc338:	bf08      	it	eq
 23fc33a:	4670      	moveq	r0, lr
 23fc33c:	f013 0f20 	tst.w	r3, #32
 23fc340:	bf14      	ite	ne
 23fc342:	2303      	movne	r3, #3
 23fc344:	2302      	moveq	r3, #2
 23fc346:	4403      	add	r3, r0
 23fc348:	f88c 3072 	strb.w	r3, [ip, #114]	; 0x72
      spiArray[(x*9)+(s*3)+1+resetOff] = 0 /* bit 7 always 0 */ + ((0x10 & pixels[(x*3)+s])?(PIX_HI << 4):(PIX_LO << 4)) + ((0x08 & pixels[(x*3)+s])?(PIX_HI << 1):(PIX_LO << 1)) + 1 /* bit 0 always 1 */;
 23fc34c:	f811 0c02 	ldrb.w	r0, [r1, #-2]
 23fc350:	f000 0310 	and.w	r3, r0, #16
 23fc354:	2b00      	cmp	r3, #0
 23fc356:	bf15      	itete	ne
 23fc358:	f04f 0e69 	movne.w	lr, #105	; 0x69
 23fc35c:	f04f 0e49 	moveq.w	lr, #73	; 0x49
 23fc360:	236d      	movne	r3, #109	; 0x6d
 23fc362:	234d      	moveq	r3, #77	; 0x4d
 23fc364:	f010 0f08 	tst.w	r0, #8
 23fc368:	bf08      	it	eq
 23fc36a:	4673      	moveq	r3, lr
 23fc36c:	f88c 3073 	strb.w	r3, [ip, #115]	; 0x73
      spiArray[(x*9)+(s*3)+2+resetOff] = ((0x04 & pixels[(x*3)+s])?(0b10 << 6):(0b00 << 6)) + ((0x02 & pixels[(x*3)+s])?(PIX_HI << 3):(PIX_LO << 3)) + ((0x01 & pixels[(x*3)+s])?(PIX_HI):(PIX_LO));
 23fc370:	f811 ec02 	ldrb.w	lr, [r1, #-2]
 23fc374:	f01e 0f02 	tst.w	lr, #2
 23fc378:	bf14      	ite	ne
 23fc37a:	2030      	movne	r0, #48	; 0x30
 23fc37c:	2020      	moveq	r0, #32
 23fc37e:	f01e 0f01 	tst.w	lr, #1
 23fc382:	bf14      	ite	ne
 23fc384:	2306      	movne	r3, #6
 23fc386:	2304      	moveq	r3, #4
 23fc388:	ea4f 1e4e 	mov.w	lr, lr, lsl #5
 23fc38c:	f00e 0e80 	and.w	lr, lr, #128	; 0x80
 23fc390:	4486      	add	lr, r0
 23fc392:	449e      	add	lr, r3
 23fc394:	f88c e074 	strb.w	lr, [ip, #116]	; 0x74
      spiArray[(x*9)+(s*3)+0+resetOff] = ((0x80 & pixels[(x*3)+s])?(PIX_HI << 5):(PIX_LO << 5)) + ((0x40 & pixels[(x*3)+s])?(PIX_HI << 2):(PIX_LO << 2)) + ((0x20 & pixels[(x*3)+s])?(0b11):(0b10));
 23fc398:	f911 3c01 	ldrsb.w	r3, [r1, #-1]
 23fc39c:	f811 0c01 	ldrb.w	r0, [r1, #-1]
 23fc3a0:	2b00      	cmp	r3, #0
 23fc3a2:	bfb5      	itete	lt
 23fc3a4:	f04f 0ed0 	movlt.w	lr, #208	; 0xd0
 23fc3a8:	f04f 0e90 	movge.w	lr, #144	; 0x90
 23fc3ac:	23d8      	movlt	r3, #216	; 0xd8
 23fc3ae:	2398      	movge	r3, #152	; 0x98
 23fc3b0:	f010 0f40 	tst.w	r0, #64	; 0x40
 23fc3b4:	bf08      	it	eq
 23fc3b6:	4673      	moveq	r3, lr
 23fc3b8:	f010 0f20 	tst.w	r0, #32
 23fc3bc:	bf14      	ite	ne
 23fc3be:	2003      	movne	r0, #3
 23fc3c0:	2002      	moveq	r0, #2
 23fc3c2:	4403      	add	r3, r0
 23fc3c4:	f88c 3075 	strb.w	r3, [ip, #117]	; 0x75
      spiArray[(x*9)+(s*3)+1+resetOff] = 0 /* bit 7 always 0 */ + ((0x10 & pixels[(x*3)+s])?(PIX_HI << 4):(PIX_LO << 4)) + ((0x08 & pixels[(x*3)+s])?(PIX_HI << 1):(PIX_LO << 1)) + 1 /* bit 0 always 1 */;
 23fc3c8:	f811 0c01 	ldrb.w	r0, [r1, #-1]
 23fc3cc:	f000 0310 	and.w	r3, r0, #16
 23fc3d0:	2b00      	cmp	r3, #0
 23fc3d2:	bf15      	itete	ne
 23fc3d4:	f04f 0e69 	movne.w	lr, #105	; 0x69
 23fc3d8:	f04f 0e49 	moveq.w	lr, #73	; 0x49
 23fc3dc:	236d      	movne	r3, #109	; 0x6d
 23fc3de:	234d      	moveq	r3, #77	; 0x4d
 23fc3e0:	f010 0f08 	tst.w	r0, #8
 23fc3e4:	bf08      	it	eq
 23fc3e6:	4673      	moveq	r3, lr
 23fc3e8:	f88c 3076 	strb.w	r3, [ip, #118]	; 0x76
      spiArray[(x*9)+(s*3)+2+resetOff] = ((0x04 & pixels[(x*3)+s])?(0b10 << 6):(0b00 << 6)) + ((0x02 & pixels[(x*3)+s])?(PIX_HI << 3):(PIX_LO << 3)) + ((0x01 & pixels[(x*3)+s])?(PIX_HI):(PIX_LO));
 23fc3ec:	f811 0c01 	ldrb.w	r0, [r1, #-1]
 23fc3f0:	f010 0f02 	tst.w	r0, #2
 23fc3f4:	bf14      	ite	ne
 23fc3f6:	f04f 0e30 	movne.w	lr, #48	; 0x30
 23fc3fa:	f04f 0e20 	moveq.w	lr, #32
 23fc3fe:	0143      	lsls	r3, r0, #5
 23fc400:	f003 0380 	and.w	r3, r3, #128	; 0x80
 23fc404:	4473      	add	r3, lr
 23fc406:	b2db      	uxtb	r3, r3
 23fc408:	07c0      	lsls	r0, r0, #31
 23fc40a:	f103 0e06 	add.w	lr, r3, #6
 23fc40e:	f103 0304 	add.w	r3, r3, #4
 23fc412:	bf4c      	ite	mi
 23fc414:	f88c e077 	strbmi.w	lr, [ip, #119]	; 0x77
 23fc418:	f88c 3077 	strbpl.w	r3, [ip, #119]	; 0x77
  for (int x = 0; x < numPixels(); x++) {
 23fc41c:	4594      	cmp	ip, r2
 23fc41e:	f47f af3e 	bne.w	23fc29e <_ZN17Adafruit_NeoPixel4showEv+0x46>
  spi_->beginTransaction();
 23fc422:	6960      	ldr	r0, [r4, #20]
 23fc424:	f000 ff2a 	bl	23fd27c <_ZN8SPIClass16beginTransactionEv>
  spi_->transfer(spiArray, nullptr, spiArraySize, nullptr);
 23fc428:	2200      	movs	r2, #0
 23fc42a:	4633      	mov	r3, r6
 23fc42c:	4629      	mov	r1, r5
 23fc42e:	6960      	ldr	r0, [r4, #20]
 23fc430:	9200      	str	r2, [sp, #0]
 23fc432:	f000 ff71 	bl	23fd318 <_ZN8SPIClass8transferEPKvPvjPFvvE>
  spi_->endTransaction();
 23fc436:	6960      	ldr	r0, [r4, #20]
 23fc438:	f000 ff23 	bl	23fd282 <_ZN8SPIClass14endTransactionEv>
  free(spiArray);
 23fc43c:	4628      	mov	r0, r5
 23fc43e:	f000 fc15 	bl	23fcc6c <free>
#ifdef __cplusplus
extern "C" {
#endif

inline system_tick_t millis(void) { return HAL_Timer_Get_Milli_Seconds(); }
inline unsigned long micros(void) { return HAL_Timer_Get_Micro_Seconds(); }
 23fc442:	f000 f877 	bl	23fc534 <HAL_Timer_Get_Micro_Seconds>
  endTime = micros(); // Save EOD time for latch on next call
 23fc446:	6120      	str	r0, [r4, #16]
}
 23fc448:	b002      	add	sp, #8
 23fc44a:	bd70      	pop	{r4, r5, r6, pc}
    Log.error("Pixel type not supported!");
 23fc44c:	4904      	ldr	r1, [pc, #16]	; (23fc460 <_ZN17Adafruit_NeoPixel4showEv+0x208>)
    Log.error("Not enough memory available!");
 23fc44e:	4805      	ldr	r0, [pc, #20]	; (23fc464 <_ZN17Adafruit_NeoPixel4showEv+0x20c>)
 23fc450:	f7ff fe58 	bl	23fc104 <_ZNK5spark6Logger5errorEPKcz>
}
 23fc454:	b002      	add	sp, #8
 23fc456:	bd70      	pop	{r4, r5, r6, pc}
 23fc458:	4770      	bx	lr
    Log.error("Not enough memory available!");
 23fc45a:	4903      	ldr	r1, [pc, #12]	; (23fc468 <_ZN17Adafruit_NeoPixel4showEv+0x210>)
 23fc45c:	e7f7      	b.n	23fc44e <_ZN17Adafruit_NeoPixel4showEv+0x1f6>
 23fc45e:	bf00      	nop
 23fc460:	023ffa44 	.word	0x023ffa44
 23fc464:	1007af3c 	.word	0x1007af3c
 23fc468:	023ffa60 	.word	0x023ffa60

023fc46c <_ZN17Adafruit_NeoPixel13setPixelColorEtm>:
  if(n < numLEDs) {
 23fc46c:	8843      	ldrh	r3, [r0, #2]
void Adafruit_NeoPixel::setPixelColor(uint16_t n, uint32_t c) {
 23fc46e:	b5f0      	push	{r4, r5, r6, r7, lr}
  if(n < numLEDs) {
 23fc470:	428b      	cmp	r3, r1
 23fc472:	d92d      	bls.n	23fc4d0 <_ZN17Adafruit_NeoPixel13setPixelColorEtm+0x64>
    if(brightness) { // See notes in setBrightness()
 23fc474:	7a06      	ldrb	r6, [r0, #8]
 23fc476:	f3c2 4307 	ubfx	r3, r2, #16, #8
 23fc47a:	f3c2 2407 	ubfx	r4, r2, #8, #8
 23fc47e:	b2d5      	uxtb	r5, r2
 23fc480:	b13e      	cbz	r6, 23fc492 <_ZN17Adafruit_NeoPixel13setPixelColorEtm+0x26>
      r = (r * brightness) >> 8;
 23fc482:	4373      	muls	r3, r6
      g = (g * brightness) >> 8;
 23fc484:	4374      	muls	r4, r6
      b = (b * brightness) >> 8;
 23fc486:	4375      	muls	r5, r6
      r = (r * brightness) >> 8;
 23fc488:	f3c3 2307 	ubfx	r3, r3, #8, #8
      g = (g * brightness) >> 8;
 23fc48c:	f3c4 2407 	ubfx	r4, r4, #8, #8
      b = (b * brightness) >> 8;
 23fc490:	0a2d      	lsrs	r5, r5, #8
    uint8_t *p = &pixels[n * (type==SK6812RGBW?4:3)];
 23fc492:	f890 c006 	ldrb.w	ip, [r0, #6]
 23fc496:	68c7      	ldr	r7, [r0, #12]
 23fc498:	f1bc 0f06 	cmp.w	ip, #6
 23fc49c:	bf0c      	ite	eq
 23fc49e:	2604      	moveq	r6, #4
 23fc4a0:	2603      	movne	r6, #3
 23fc4a2:	434e      	muls	r6, r1
 23fc4a4:	f1ac 0c02 	sub.w	ip, ip, #2
 23fc4a8:	19b9      	adds	r1, r7, r6
    switch(type) {
 23fc4aa:	f1bc 0f06 	cmp.w	ip, #6
 23fc4ae:	d81d      	bhi.n	23fc4ec <_ZN17Adafruit_NeoPixel13setPixelColorEtm+0x80>
 23fc4b0:	e8df f00c 	tbb	[pc, ip]
 23fc4b4:	04081c04 	.word	0x04081c04
 23fc4b8:	040f      	.short	0x040f
 23fc4ba:	04          	.byte	0x04
 23fc4bb:	00          	.byte	0x00
          *p++ = g;
 23fc4bc:	55bc      	strb	r4, [r7, r6]
          *p++ = r;
 23fc4be:	704b      	strb	r3, [r1, #1]
          *p = b;
 23fc4c0:	708d      	strb	r5, [r1, #2]
}
 23fc4c2:	e005      	b.n	23fc4d0 <_ZN17Adafruit_NeoPixel13setPixelColorEtm+0x64>
          *p++ = r;
 23fc4c4:	2bfe      	cmp	r3, #254	; 0xfe
 23fc4c6:	bf28      	it	cs
 23fc4c8:	23fe      	movcs	r3, #254	; 0xfe
 23fc4ca:	55bb      	strb	r3, [r7, r6]
          *p++ = b;
 23fc4cc:	704d      	strb	r5, [r1, #1]
          *p = g;
 23fc4ce:	708c      	strb	r4, [r1, #2]
}
 23fc4d0:	bdf0      	pop	{r4, r5, r6, r7, pc}
          *p++ = r;
 23fc4d2:	55bb      	strb	r3, [r7, r6]
          *p++ = g;
 23fc4d4:	704c      	strb	r4, [r1, #1]
          *p++ = b;
 23fc4d6:	708d      	strb	r5, [r1, #2]
          *p = brightness ? ((w * brightness) >> 8) : w;
 23fc4d8:	7a03      	ldrb	r3, [r0, #8]
          uint8_t w = (uint8_t)(c >> 24);
 23fc4da:	0e12      	lsrs	r2, r2, #24
          *p = brightness ? ((w * brightness) >> 8) : w;
 23fc4dc:	b913      	cbnz	r3, 23fc4e4 <_ZN17Adafruit_NeoPixel13setPixelColorEtm+0x78>
          uint8_t w = (uint8_t)(c >> 24);
 23fc4de:	b2d2      	uxtb	r2, r2
          *p = brightness ? ((w * brightness) >> 8) : w;
 23fc4e0:	70ca      	strb	r2, [r1, #3]
        } break;
 23fc4e2:	e7f5      	b.n	23fc4d0 <_ZN17Adafruit_NeoPixel13setPixelColorEtm+0x64>
          *p = brightness ? ((w * brightness) >> 8) : w;
 23fc4e4:	435a      	muls	r2, r3
 23fc4e6:	f3c2 2207 	ubfx	r2, r2, #8, #8
 23fc4ea:	e7f9      	b.n	23fc4e0 <_ZN17Adafruit_NeoPixel13setPixelColorEtm+0x74>
          *p++ = r;
 23fc4ec:	55bb      	strb	r3, [r7, r6]
          *p++ = g;
 23fc4ee:	704c      	strb	r4, [r1, #1]
 23fc4f0:	e7e6      	b.n	23fc4c0 <_ZN17Adafruit_NeoPixel13setPixelColorEtm+0x54>

023fc4f2 <_ZN17Adafruit_NeoPixel5ColorEhhh>:
  return ((uint32_t)r << 16) | ((uint32_t)g <<  8) | b;
 23fc4f2:	ea42 2101 	orr.w	r1, r2, r1, lsl #8
}
 23fc4f6:	ea41 4000 	orr.w	r0, r1, r0, lsl #16
 23fc4fa:	4770      	bx	lr

023fc4fc <os_mutex_recursive_create>:
DYNALIB_FN(13, hal_concurrent, os_mutex_destroy, int(os_mutex_t))
DYNALIB_FN(14, hal_concurrent, os_mutex_lock, int(os_mutex_t))
DYNALIB_FN(15, hal_concurrent, os_mutex_trylock, int(os_mutex_t))
DYNALIB_FN(16, hal_concurrent, os_mutex_unlock, int(os_mutex_t))

DYNALIB_FN(17, hal_concurrent, os_mutex_recursive_create, int(os_mutex_recursive_t*))
 23fc4fc:	b509      	push	{r0, r3, lr}
 23fc4fe:	4804      	ldr	r0, [pc, #16]	; (23fc510 <os_mutex_recursive_create+0x14>)
 23fc500:	6800      	ldr	r0, [r0, #0]
 23fc502:	4b04      	ldr	r3, [pc, #16]	; (23fc514 <os_mutex_recursive_create+0x18>)
 23fc504:	4403      	add	r3, r0
 23fc506:	681b      	ldr	r3, [r3, #0]
 23fc508:	6c5b      	ldr	r3, [r3, #68]	; 0x44
 23fc50a:	9302      	str	r3, [sp, #8]
 23fc50c:	bd09      	pop	{r0, r3, pc}
 23fc50e:	0000      	.short	0x0000
 23fc510:	1007ace8 	.word	0x1007ace8
 23fc514:	00000030 	.word	0x00000030

023fc518 <HAL_RNG_GetRandomNumber>:

DYNALIB_BEGIN(hal)

#if PLATFORM_ID > PLATFORM_GCC
DYNALIB_FN(0, hal, HAL_RNG_Configuration, void(void))
DYNALIB_FN(1, hal, HAL_RNG_GetRandomNumber, uint32_t(void))
 23fc518:	b509      	push	{r0, r3, lr}
 23fc51a:	4804      	ldr	r0, [pc, #16]	; (23fc52c <HAL_RNG_GetRandomNumber+0x14>)
 23fc51c:	6800      	ldr	r0, [r0, #0]
 23fc51e:	4b04      	ldr	r3, [pc, #16]	; (23fc530 <HAL_RNG_GetRandomNumber+0x18>)
 23fc520:	4403      	add	r3, r0
 23fc522:	681b      	ldr	r3, [r3, #0]
 23fc524:	685b      	ldr	r3, [r3, #4]
 23fc526:	9302      	str	r3, [sp, #8]
 23fc528:	bd09      	pop	{r0, r3, pc}
 23fc52a:	0000      	.short	0x0000
 23fc52c:	1007ace8 	.word	0x1007ace8
 23fc530:	00000000 	.word	0x00000000

023fc534 <HAL_Timer_Get_Micro_Seconds>:
#define BASE_IDX 0
#endif // PLATFORM_ID > PLATFORM_GCC

DYNALIB_FN(BASE_IDX + 0, hal, HAL_Delay_Milliseconds, void(uint32_t))
DYNALIB_FN(BASE_IDX + 1, hal, HAL_Delay_Microseconds, void(uint32_t))
DYNALIB_FN(BASE_IDX + 2, hal, HAL_Timer_Get_Micro_Seconds, system_tick_t(void))
 23fc534:	b509      	push	{r0, r3, lr}
 23fc536:	4804      	ldr	r0, [pc, #16]	; (23fc548 <HAL_Timer_Get_Micro_Seconds+0x14>)
 23fc538:	6800      	ldr	r0, [r0, #0]
 23fc53a:	4b04      	ldr	r3, [pc, #16]	; (23fc54c <HAL_Timer_Get_Micro_Seconds+0x18>)
 23fc53c:	4403      	add	r3, r0
 23fc53e:	681b      	ldr	r3, [r3, #0]
 23fc540:	691b      	ldr	r3, [r3, #16]
 23fc542:	9302      	str	r3, [sp, #8]
 23fc544:	bd09      	pop	{r0, r3, pc}
 23fc546:	0000      	.short	0x0000
 23fc548:	1007ace8 	.word	0x1007ace8
 23fc54c:	00000000 	.word	0x00000000

023fc550 <HAL_Timer_Get_Milli_Seconds>:
DYNALIB_FN(BASE_IDX + 3, hal, HAL_Timer_Get_Milli_Seconds, system_tick_t(void))
 23fc550:	b509      	push	{r0, r3, lr}
 23fc552:	4804      	ldr	r0, [pc, #16]	; (23fc564 <HAL_Timer_Get_Milli_Seconds+0x14>)
 23fc554:	6800      	ldr	r0, [r0, #0]
 23fc556:	4b04      	ldr	r3, [pc, #16]	; (23fc568 <HAL_Timer_Get_Milli_Seconds+0x18>)
 23fc558:	4403      	add	r3, r0
 23fc55a:	681b      	ldr	r3, [r3, #0]
 23fc55c:	695b      	ldr	r3, [r3, #20]
 23fc55e:	9302      	str	r3, [sp, #8]
 23fc560:	bd09      	pop	{r0, r3, pc}
 23fc562:	0000      	.short	0x0000
 23fc564:	1007ace8 	.word	0x1007ace8
 23fc568:	00000000 	.word	0x00000000

023fc56c <hal_pin_validate_function>:
// GNINRAW

DYNALIB_BEGIN(hal_gpio)

DYNALIB_FN(0, hal_gpio, hal_pin_map, hal_pin_info_t*(void))
DYNALIB_FN(1, hal_gpio, hal_pin_validate_function, PinFunction(hal_pin_t, PinFunction))
 23fc56c:	b509      	push	{r0, r3, lr}
 23fc56e:	4804      	ldr	r0, [pc, #16]	; (23fc580 <hal_pin_validate_function+0x14>)
 23fc570:	6800      	ldr	r0, [r0, #0]
 23fc572:	4b04      	ldr	r3, [pc, #16]	; (23fc584 <hal_pin_validate_function+0x18>)
 23fc574:	4403      	add	r3, r0
 23fc576:	681b      	ldr	r3, [r3, #0]
 23fc578:	685b      	ldr	r3, [r3, #4]
 23fc57a:	9302      	str	r3, [sp, #8]
 23fc57c:	bd09      	pop	{r0, r3, pc}
 23fc57e:	0000      	.short	0x0000
 23fc580:	1007ace8 	.word	0x1007ace8
 23fc584:	00000014 	.word	0x00000014

023fc588 <hal_gpio_mode>:
DYNALIB_FN(2, hal_gpio, hal_gpio_mode, void(hal_pin_t, PinMode))
 23fc588:	b509      	push	{r0, r3, lr}
 23fc58a:	4804      	ldr	r0, [pc, #16]	; (23fc59c <hal_gpio_mode+0x14>)
 23fc58c:	6800      	ldr	r0, [r0, #0]
 23fc58e:	4b04      	ldr	r3, [pc, #16]	; (23fc5a0 <hal_gpio_mode+0x18>)
 23fc590:	4403      	add	r3, r0
 23fc592:	681b      	ldr	r3, [r3, #0]
 23fc594:	689b      	ldr	r3, [r3, #8]
 23fc596:	9302      	str	r3, [sp, #8]
 23fc598:	bd09      	pop	{r0, r3, pc}
 23fc59a:	0000      	.short	0x0000
 23fc59c:	1007ace8 	.word	0x1007ace8
 23fc5a0:	00000014 	.word	0x00000014

023fc5a4 <hal_gpio_get_mode>:
DYNALIB_FN(3, hal_gpio, hal_gpio_get_mode, PinMode(hal_pin_t))
 23fc5a4:	b509      	push	{r0, r3, lr}
 23fc5a6:	4804      	ldr	r0, [pc, #16]	; (23fc5b8 <hal_gpio_get_mode+0x14>)
 23fc5a8:	6800      	ldr	r0, [r0, #0]
 23fc5aa:	4b04      	ldr	r3, [pc, #16]	; (23fc5bc <hal_gpio_get_mode+0x18>)
 23fc5ac:	4403      	add	r3, r0
 23fc5ae:	681b      	ldr	r3, [r3, #0]
 23fc5b0:	68db      	ldr	r3, [r3, #12]
 23fc5b2:	9302      	str	r3, [sp, #8]
 23fc5b4:	bd09      	pop	{r0, r3, pc}
 23fc5b6:	0000      	.short	0x0000
 23fc5b8:	1007ace8 	.word	0x1007ace8
 23fc5bc:	00000014 	.word	0x00000014

023fc5c0 <hal_gpio_write>:
DYNALIB_FN(4, hal_gpio, hal_gpio_write, void(hal_pin_t, uint8_t))
 23fc5c0:	b509      	push	{r0, r3, lr}
 23fc5c2:	4804      	ldr	r0, [pc, #16]	; (23fc5d4 <hal_gpio_write+0x14>)
 23fc5c4:	6800      	ldr	r0, [r0, #0]
 23fc5c6:	4b04      	ldr	r3, [pc, #16]	; (23fc5d8 <hal_gpio_write+0x18>)
 23fc5c8:	4403      	add	r3, r0
 23fc5ca:	681b      	ldr	r3, [r3, #0]
 23fc5cc:	691b      	ldr	r3, [r3, #16]
 23fc5ce:	9302      	str	r3, [sp, #8]
 23fc5d0:	bd09      	pop	{r0, r3, pc}
 23fc5d2:	0000      	.short	0x0000
 23fc5d4:	1007ace8 	.word	0x1007ace8
 23fc5d8:	00000014 	.word	0x00000014

023fc5dc <hal_gpio_read>:
DYNALIB_FN(5, hal_gpio, hal_gpio_read, int32_t(hal_pin_t))
 23fc5dc:	b509      	push	{r0, r3, lr}
 23fc5de:	4804      	ldr	r0, [pc, #16]	; (23fc5f0 <hal_gpio_read+0x14>)
 23fc5e0:	6800      	ldr	r0, [r0, #0]
 23fc5e2:	4b04      	ldr	r3, [pc, #16]	; (23fc5f4 <hal_gpio_read+0x18>)
 23fc5e4:	4403      	add	r3, r0
 23fc5e6:	681b      	ldr	r3, [r3, #0]
 23fc5e8:	695b      	ldr	r3, [r3, #20]
 23fc5ea:	9302      	str	r3, [sp, #8]
 23fc5ec:	bd09      	pop	{r0, r3, pc}
 23fc5ee:	0000      	.short	0x0000
 23fc5f0:	1007ace8 	.word	0x1007ace8
 23fc5f4:	00000014 	.word	0x00000014

023fc5f8 <hal_adc_read>:
DYNALIB_FN(8, hal_gpio, hal_interrupt_enable_all, void(void))
DYNALIB_FN(9, hal_gpio, hal_interrupt_disable_all, void(void))

DYNALIB_FN(10, hal_gpio, HAL_DAC_Write, void(hal_pin_t, uint16_t))
DYNALIB_FN(11, hal_gpio, hal_adc_set_sample_time, void(uint8_t))
DYNALIB_FN(12, hal_gpio, hal_adc_read, int32_t(uint16_t))
 23fc5f8:	b509      	push	{r0, r3, lr}
 23fc5fa:	4804      	ldr	r0, [pc, #16]	; (23fc60c <hal_adc_read+0x14>)
 23fc5fc:	6800      	ldr	r0, [r0, #0]
 23fc5fe:	4b04      	ldr	r3, [pc, #16]	; (23fc610 <hal_adc_read+0x18>)
 23fc600:	4403      	add	r3, r0
 23fc602:	681b      	ldr	r3, [r3, #0]
 23fc604:	6b1b      	ldr	r3, [r3, #48]	; 0x30
 23fc606:	9302      	str	r3, [sp, #8]
 23fc608:	bd09      	pop	{r0, r3, pc}
 23fc60a:	0000      	.short	0x0000
 23fc60c:	1007ace8 	.word	0x1007ace8
 23fc610:	00000014 	.word	0x00000014

023fc614 <hal_i2c_write>:
DYNALIB_FN(3, hal_i2c, hal_i2c_begin, void(hal_i2c_interface_t, hal_i2c_mode_t, uint8_t, void*))
DYNALIB_FN(4, hal_i2c, hal_i2c_end, void(hal_i2c_interface_t, void*))
DYNALIB_FN(5, hal_i2c, hal_i2c_request, uint32_t(hal_i2c_interface_t, uint8_t, uint8_t, uint8_t, void*))
DYNALIB_FN(6, hal_i2c, hal_i2c_begin_transmission, void(hal_i2c_interface_t, uint8_t, const hal_i2c_transmission_config_t*))
DYNALIB_FN(7, hal_i2c, hal_i2c_end_transmission, uint8_t(hal_i2c_interface_t, uint8_t, void*))
DYNALIB_FN(8, hal_i2c, hal_i2c_write, uint32_t(hal_i2c_interface_t, uint8_t, void*))
 23fc614:	b509      	push	{r0, r3, lr}
 23fc616:	4804      	ldr	r0, [pc, #16]	; (23fc628 <hal_i2c_write+0x14>)
 23fc618:	6800      	ldr	r0, [r0, #0]
 23fc61a:	4b04      	ldr	r3, [pc, #16]	; (23fc62c <hal_i2c_write+0x18>)
 23fc61c:	4403      	add	r3, r0
 23fc61e:	681b      	ldr	r3, [r3, #0]
 23fc620:	6a1b      	ldr	r3, [r3, #32]
 23fc622:	9302      	str	r3, [sp, #8]
 23fc624:	bd09      	pop	{r0, r3, pc}
 23fc626:	0000      	.short	0x0000
 23fc628:	1007ace8 	.word	0x1007ace8
 23fc62c:	00000010 	.word	0x00000010

023fc630 <hal_i2c_available>:
DYNALIB_FN(9, hal_i2c, hal_i2c_available, int32_t(hal_i2c_interface_t, void*))
 23fc630:	b509      	push	{r0, r3, lr}
 23fc632:	4804      	ldr	r0, [pc, #16]	; (23fc644 <hal_i2c_available+0x14>)
 23fc634:	6800      	ldr	r0, [r0, #0]
 23fc636:	4b04      	ldr	r3, [pc, #16]	; (23fc648 <hal_i2c_available+0x18>)
 23fc638:	4403      	add	r3, r0
 23fc63a:	681b      	ldr	r3, [r3, #0]
 23fc63c:	6a5b      	ldr	r3, [r3, #36]	; 0x24
 23fc63e:	9302      	str	r3, [sp, #8]
 23fc640:	bd09      	pop	{r0, r3, pc}
 23fc642:	0000      	.short	0x0000
 23fc644:	1007ace8 	.word	0x1007ace8
 23fc648:	00000010 	.word	0x00000010

023fc64c <hal_i2c_read>:
DYNALIB_FN(10, hal_i2c, hal_i2c_read, int32_t(hal_i2c_interface_t, void*))
 23fc64c:	b509      	push	{r0, r3, lr}
 23fc64e:	4804      	ldr	r0, [pc, #16]	; (23fc660 <hal_i2c_read+0x14>)
 23fc650:	6800      	ldr	r0, [r0, #0]
 23fc652:	4b04      	ldr	r3, [pc, #16]	; (23fc664 <hal_i2c_read+0x18>)
 23fc654:	4403      	add	r3, r0
 23fc656:	681b      	ldr	r3, [r3, #0]
 23fc658:	6a9b      	ldr	r3, [r3, #40]	; 0x28
 23fc65a:	9302      	str	r3, [sp, #8]
 23fc65c:	bd09      	pop	{r0, r3, pc}
 23fc65e:	0000      	.short	0x0000
 23fc660:	1007ace8 	.word	0x1007ace8
 23fc664:	00000010 	.word	0x00000010

023fc668 <hal_i2c_peek>:
DYNALIB_FN(11, hal_i2c, hal_i2c_peek, int32_t(hal_i2c_interface_t, void*))
 23fc668:	b509      	push	{r0, r3, lr}
 23fc66a:	4804      	ldr	r0, [pc, #16]	; (23fc67c <hal_i2c_peek+0x14>)
 23fc66c:	6800      	ldr	r0, [r0, #0]
 23fc66e:	4b04      	ldr	r3, [pc, #16]	; (23fc680 <hal_i2c_peek+0x18>)
 23fc670:	4403      	add	r3, r0
 23fc672:	681b      	ldr	r3, [r3, #0]
 23fc674:	6adb      	ldr	r3, [r3, #44]	; 0x2c
 23fc676:	9302      	str	r3, [sp, #8]
 23fc678:	bd09      	pop	{r0, r3, pc}
 23fc67a:	0000      	.short	0x0000
 23fc67c:	1007ace8 	.word	0x1007ace8
 23fc680:	00000010 	.word	0x00000010

023fc684 <hal_i2c_flush>:
DYNALIB_FN(12, hal_i2c, hal_i2c_flush, void(hal_i2c_interface_t, void*))
 23fc684:	b509      	push	{r0, r3, lr}
 23fc686:	4804      	ldr	r0, [pc, #16]	; (23fc698 <hal_i2c_flush+0x14>)
 23fc688:	6800      	ldr	r0, [r0, #0]
 23fc68a:	4b04      	ldr	r3, [pc, #16]	; (23fc69c <hal_i2c_flush+0x18>)
 23fc68c:	4403      	add	r3, r0
 23fc68e:	681b      	ldr	r3, [r3, #0]
 23fc690:	6b1b      	ldr	r3, [r3, #48]	; 0x30
 23fc692:	9302      	str	r3, [sp, #8]
 23fc694:	bd09      	pop	{r0, r3, pc}
 23fc696:	0000      	.short	0x0000
 23fc698:	1007ace8 	.word	0x1007ace8
 23fc69c:	00000010 	.word	0x00000010

023fc6a0 <hal_i2c_is_enabled>:
DYNALIB_FN(13, hal_i2c, hal_i2c_is_enabled, bool(hal_i2c_interface_t, void*))
 23fc6a0:	b509      	push	{r0, r3, lr}
 23fc6a2:	4804      	ldr	r0, [pc, #16]	; (23fc6b4 <hal_i2c_is_enabled+0x14>)
 23fc6a4:	6800      	ldr	r0, [r0, #0]
 23fc6a6:	4b04      	ldr	r3, [pc, #16]	; (23fc6b8 <hal_i2c_is_enabled+0x18>)
 23fc6a8:	4403      	add	r3, r0
 23fc6aa:	681b      	ldr	r3, [r3, #0]
 23fc6ac:	6b5b      	ldr	r3, [r3, #52]	; 0x34
 23fc6ae:	9302      	str	r3, [sp, #8]
 23fc6b0:	bd09      	pop	{r0, r3, pc}
 23fc6b2:	0000      	.short	0x0000
 23fc6b4:	1007ace8 	.word	0x1007ace8
 23fc6b8:	00000010 	.word	0x00000010

023fc6bc <hal_i2c_init>:
DYNALIB_FN(14, hal_i2c, hal_i2c_set_callback_on_received, void(hal_i2c_interface_t, void(*)(int), void*))
DYNALIB_FN(15, hal_i2c, hal_i2c_set_callback_on_requested, void(hal_i2c_interface_t, void(*)(void), void*))
DYNALIB_FN(16, hal_i2c, hal_i2c_init, int(hal_i2c_interface_t, const hal_i2c_config_t*))
 23fc6bc:	b509      	push	{r0, r3, lr}
 23fc6be:	4804      	ldr	r0, [pc, #16]	; (23fc6d0 <hal_i2c_init+0x14>)
 23fc6c0:	6800      	ldr	r0, [r0, #0]
 23fc6c2:	4b04      	ldr	r3, [pc, #16]	; (23fc6d4 <hal_i2c_init+0x18>)
 23fc6c4:	4403      	add	r3, r0
 23fc6c6:	681b      	ldr	r3, [r3, #0]
 23fc6c8:	6c1b      	ldr	r3, [r3, #64]	; 0x40
 23fc6ca:	9302      	str	r3, [sp, #8]
 23fc6cc:	bd09      	pop	{r0, r3, pc}
 23fc6ce:	0000      	.short	0x0000
 23fc6d0:	1007ace8 	.word	0x1007ace8
 23fc6d4:	00000010 	.word	0x00000010

023fc6d8 <if_get_by_index>:
DYNALIB_FN(1, hal_ifapi, if_free_list, int(struct if_list*))
DYNALIB_FN(2, hal_ifapi, if_get_name_index, int(struct if_nameindex**))
DYNALIB_FN(3, hal_ifapi, if_free_name_index, int(struct if_nameindex*))
DYNALIB_FN(4, hal_ifapi, if_name_to_index, int(const char*, uint8_t*))
DYNALIB_FN(5, hal_ifapi, if_index_to_name, int(uint8_t, char*))
DYNALIB_FN(6, hal_ifapi, if_get_by_index, int(uint8_t, if_t*))
 23fc6d8:	b509      	push	{r0, r3, lr}
 23fc6da:	4804      	ldr	r0, [pc, #16]	; (23fc6ec <if_get_by_index+0x14>)
 23fc6dc:	6800      	ldr	r0, [r0, #0]
 23fc6de:	4b04      	ldr	r3, [pc, #16]	; (23fc6f0 <if_get_by_index+0x18>)
 23fc6e0:	4403      	add	r3, r0
 23fc6e2:	681b      	ldr	r3, [r3, #0]
 23fc6e4:	699b      	ldr	r3, [r3, #24]
 23fc6e6:	9302      	str	r3, [sp, #8]
 23fc6e8:	bd09      	pop	{r0, r3, pc}
 23fc6ea:	0000      	.short	0x0000
 23fc6ec:	1007ace8 	.word	0x1007ace8
 23fc6f0:	00000054 	.word	0x00000054

023fc6f4 <inet_inet_ntop>:
DYNALIB_FN(0, hal_inet, inet_inet_addr, in_addr_t(const char*))
DYNALIB_FN(1, hal_inet, inet_inet_aton, int(const char*, struct in_addr*))
DYNALIB_FN(2, hal_inet, inet_inet_network, in_addr_t(const char*))
DYNALIB_FN(3, hal_inet, inet_inet_ntoa, char*(struct in_addr))
DYNALIB_FN(4, hal_inet, inet_inet_ntoa_r, char*(struct in_addr, char*, socklen_t))
DYNALIB_FN(5, hal_inet, inet_inet_ntop, const char*(int, const void*, char*, socklen_t))
 23fc6f4:	b509      	push	{r0, r3, lr}
 23fc6f6:	4804      	ldr	r0, [pc, #16]	; (23fc708 <inet_inet_ntop+0x14>)
 23fc6f8:	6800      	ldr	r0, [r0, #0]
 23fc6fa:	4b04      	ldr	r3, [pc, #16]	; (23fc70c <inet_inet_ntop+0x18>)
 23fc6fc:	4403      	add	r3, r0
 23fc6fe:	681b      	ldr	r3, [r3, #0]
 23fc700:	695b      	ldr	r3, [r3, #20]
 23fc702:	9302      	str	r3, [sp, #8]
 23fc704:	bd09      	pop	{r0, r3, pc}
 23fc706:	0000      	.short	0x0000
 23fc708:	1007ace8 	.word	0x1007ace8
 23fc70c:	0000004c 	.word	0x0000004c

023fc710 <netdb_freeaddrinfo>:

DYNALIB_BEGIN(hal_netdb)

DYNALIB_FN(0, hal_netdb, netdb_gethostbyname, struct hostent*(const char*))
DYNALIB_FN(1, hal_netdb, netdb_gethostbyname_r, int(const char*, struct hostent*, char*, size_t, struct hostent**, int*))
DYNALIB_FN(2, hal_netdb, netdb_freeaddrinfo, void(struct addrinfo*))
 23fc710:	b509      	push	{r0, r3, lr}
 23fc712:	4804      	ldr	r0, [pc, #16]	; (23fc724 <netdb_freeaddrinfo+0x14>)
 23fc714:	6800      	ldr	r0, [r0, #0]
 23fc716:	4b04      	ldr	r3, [pc, #16]	; (23fc728 <netdb_freeaddrinfo+0x18>)
 23fc718:	4403      	add	r3, r0
 23fc71a:	681b      	ldr	r3, [r3, #0]
 23fc71c:	689b      	ldr	r3, [r3, #8]
 23fc71e:	9302      	str	r3, [sp, #8]
 23fc720:	bd09      	pop	{r0, r3, pc}
 23fc722:	0000      	.short	0x0000
 23fc724:	1007ace8 	.word	0x1007ace8
 23fc728:	00000050 	.word	0x00000050

023fc72c <netdb_getaddrinfo_ex>:
DYNALIB_FN(3, hal_netdb, netdb_getaddrinfo, int(const char*, const char*, const struct addrinfo*, struct addrinfo**))
DYNALIB_FN(4, hal_netdb, netdb_getnameinfo, int(const struct sockaddr*, socklen_t, char*, socklen_t, char*, socklen_t, int))
DYNALIB_FN(5, hal_netdb, netdb_getaddrinfo_ex, int(const char*, const char*, const struct addrinfo*, struct addrinfo**, if_t))
 23fc72c:	b509      	push	{r0, r3, lr}
 23fc72e:	4804      	ldr	r0, [pc, #16]	; (23fc740 <netdb_getaddrinfo_ex+0x14>)
 23fc730:	6800      	ldr	r0, [r0, #0]
 23fc732:	4b04      	ldr	r3, [pc, #16]	; (23fc744 <netdb_getaddrinfo_ex+0x18>)
 23fc734:	4403      	add	r3, r0
 23fc736:	681b      	ldr	r3, [r3, #0]
 23fc738:	695b      	ldr	r3, [r3, #20]
 23fc73a:	9302      	str	r3, [sp, #8]
 23fc73c:	bd09      	pop	{r0, r3, pc}
 23fc73e:	0000      	.short	0x0000
 23fc740:	1007ace8 	.word	0x1007ace8
 23fc744:	00000050 	.word	0x00000050

023fc748 <hal_spi_set_clock_divider>:

DYNALIB_FN(0, hal_spi, hal_spi_begin, void(hal_spi_interface_t, uint16_t))
DYNALIB_FN(1, hal_spi, hal_spi_end, void(hal_spi_interface_t))
DYNALIB_FN(2, hal_spi, hal_spi_set_bit_order, void(hal_spi_interface_t, uint8_t))
DYNALIB_FN(3, hal_spi, hal_spi_set_data_mode, void(hal_spi_interface_t, uint8_t))
DYNALIB_FN(4, hal_spi, hal_spi_set_clock_divider, void(hal_spi_interface_t, uint8_t))
 23fc748:	b509      	push	{r0, r3, lr}
 23fc74a:	4804      	ldr	r0, [pc, #16]	; (23fc75c <hal_spi_set_clock_divider+0x14>)
 23fc74c:	6800      	ldr	r0, [r0, #0]
 23fc74e:	4b04      	ldr	r3, [pc, #16]	; (23fc760 <hal_spi_set_clock_divider+0x18>)
 23fc750:	4403      	add	r3, r0
 23fc752:	681b      	ldr	r3, [r3, #0]
 23fc754:	691b      	ldr	r3, [r3, #16]
 23fc756:	9302      	str	r3, [sp, #8]
 23fc758:	bd09      	pop	{r0, r3, pc}
 23fc75a:	0000      	.short	0x0000
 23fc75c:	1007ace8 	.word	0x1007ace8
 23fc760:	00000018 	.word	0x00000018

023fc764 <hal_spi_init>:
DYNALIB_FN(5, hal_spi, hal_spi_transfer, uint16_t(hal_spi_interface_t, uint16_t))
DYNALIB_FN(6, hal_spi, hal_spi_is_enabled_deprecated, bool(void))
DYNALIB_FN(7, hal_spi, hal_spi_init, void(hal_spi_interface_t))
 23fc764:	b509      	push	{r0, r3, lr}
 23fc766:	4804      	ldr	r0, [pc, #16]	; (23fc778 <hal_spi_init+0x14>)
 23fc768:	6800      	ldr	r0, [r0, #0]
 23fc76a:	4b04      	ldr	r3, [pc, #16]	; (23fc77c <hal_spi_init+0x18>)
 23fc76c:	4403      	add	r3, r0
 23fc76e:	681b      	ldr	r3, [r3, #0]
 23fc770:	69db      	ldr	r3, [r3, #28]
 23fc772:	9302      	str	r3, [sp, #8]
 23fc774:	bd09      	pop	{r0, r3, pc}
 23fc776:	0000      	.short	0x0000
 23fc778:	1007ace8 	.word	0x1007ace8
 23fc77c:	00000018 	.word	0x00000018

023fc780 <hal_spi_is_enabled>:
DYNALIB_FN(8, hal_spi, hal_spi_is_enabled, bool(hal_spi_interface_t))
 23fc780:	b509      	push	{r0, r3, lr}
 23fc782:	4804      	ldr	r0, [pc, #16]	; (23fc794 <hal_spi_is_enabled+0x14>)
 23fc784:	6800      	ldr	r0, [r0, #0]
 23fc786:	4b04      	ldr	r3, [pc, #16]	; (23fc798 <hal_spi_is_enabled+0x18>)
 23fc788:	4403      	add	r3, r0
 23fc78a:	681b      	ldr	r3, [r3, #0]
 23fc78c:	6a1b      	ldr	r3, [r3, #32]
 23fc78e:	9302      	str	r3, [sp, #8]
 23fc790:	bd09      	pop	{r0, r3, pc}
 23fc792:	0000      	.short	0x0000
 23fc794:	1007ace8 	.word	0x1007ace8
 23fc798:	00000018 	.word	0x00000018

023fc79c <hal_spi_info>:
DYNALIB_FN(9, hal_spi, hal_spi_info, void(hal_spi_interface_t, hal_spi_info_t*, void*))
 23fc79c:	b509      	push	{r0, r3, lr}
 23fc79e:	4804      	ldr	r0, [pc, #16]	; (23fc7b0 <hal_spi_info+0x14>)
 23fc7a0:	6800      	ldr	r0, [r0, #0]
 23fc7a2:	4b04      	ldr	r3, [pc, #16]	; (23fc7b4 <hal_spi_info+0x18>)
 23fc7a4:	4403      	add	r3, r0
 23fc7a6:	681b      	ldr	r3, [r3, #0]
 23fc7a8:	6a5b      	ldr	r3, [r3, #36]	; 0x24
 23fc7aa:	9302      	str	r3, [sp, #8]
 23fc7ac:	bd09      	pop	{r0, r3, pc}
 23fc7ae:	0000      	.short	0x0000
 23fc7b0:	1007ace8 	.word	0x1007ace8
 23fc7b4:	00000018 	.word	0x00000018

023fc7b8 <hal_spi_transfer_dma>:
DYNALIB_FN(10, hal_spi, hal_spi_transfer_dma, void(hal_spi_interface_t, const void*, void*, uint32_t, hal_spi_dma_user_callback))
 23fc7b8:	b509      	push	{r0, r3, lr}
 23fc7ba:	4804      	ldr	r0, [pc, #16]	; (23fc7cc <hal_spi_transfer_dma+0x14>)
 23fc7bc:	6800      	ldr	r0, [r0, #0]
 23fc7be:	4b04      	ldr	r3, [pc, #16]	; (23fc7d0 <hal_spi_transfer_dma+0x18>)
 23fc7c0:	4403      	add	r3, r0
 23fc7c2:	681b      	ldr	r3, [r3, #0]
 23fc7c4:	6a9b      	ldr	r3, [r3, #40]	; 0x28
 23fc7c6:	9302      	str	r3, [sp, #8]
 23fc7c8:	bd09      	pop	{r0, r3, pc}
 23fc7ca:	0000      	.short	0x0000
 23fc7cc:	1007ace8 	.word	0x1007ace8
 23fc7d0:	00000018 	.word	0x00000018

023fc7d4 <hal_spi_begin_ext>:
DYNALIB_FN(11, hal_spi, hal_spi_begin_ext, void(hal_spi_interface_t, hal_spi_mode_t, uint16_t, const hal_spi_config_t*))
 23fc7d4:	b509      	push	{r0, r3, lr}
 23fc7d6:	4804      	ldr	r0, [pc, #16]	; (23fc7e8 <hal_spi_begin_ext+0x14>)
 23fc7d8:	6800      	ldr	r0, [r0, #0]
 23fc7da:	4b04      	ldr	r3, [pc, #16]	; (23fc7ec <hal_spi_begin_ext+0x18>)
 23fc7dc:	4403      	add	r3, r0
 23fc7de:	681b      	ldr	r3, [r3, #0]
 23fc7e0:	6adb      	ldr	r3, [r3, #44]	; 0x2c
 23fc7e2:	9302      	str	r3, [sp, #8]
 23fc7e4:	bd09      	pop	{r0, r3, pc}
 23fc7e6:	0000      	.short	0x0000
 23fc7e8:	1007ace8 	.word	0x1007ace8
 23fc7ec:	00000018 	.word	0x00000018

023fc7f0 <hal_spi_transfer_dma_status>:
DYNALIB_FN(12, hal_spi, hal_spi_set_callback_on_selected, void(hal_spi_interface_t, hal_spi_select_user_callback, void*))
DYNALIB_FN(13, hal_spi, hal_spi_transfer_dma_cancel, void(hal_spi_interface_t))
DYNALIB_FN(14, hal_spi, hal_spi_transfer_dma_status, int32_t(hal_spi_interface_t, hal_spi_transfer_status_t*))
 23fc7f0:	b509      	push	{r0, r3, lr}
 23fc7f2:	4804      	ldr	r0, [pc, #16]	; (23fc804 <hal_spi_transfer_dma_status+0x14>)
 23fc7f4:	6800      	ldr	r0, [r0, #0]
 23fc7f6:	4b04      	ldr	r3, [pc, #16]	; (23fc808 <hal_spi_transfer_dma_status+0x18>)
 23fc7f8:	4403      	add	r3, r0
 23fc7fa:	681b      	ldr	r3, [r3, #0]
 23fc7fc:	6b9b      	ldr	r3, [r3, #56]	; 0x38
 23fc7fe:	9302      	str	r3, [sp, #8]
 23fc800:	bd09      	pop	{r0, r3, pc}
 23fc802:	0000      	.short	0x0000
 23fc804:	1007ace8 	.word	0x1007ace8
 23fc808:	00000018 	.word	0x00000018

023fc80c <hal_spi_acquire>:
DYNALIB_FN(15, hal_spi, hal_spi_set_settings, int32_t(hal_spi_interface_t, uint8_t, uint8_t, uint8_t, uint8_t, void*))
#if HAL_PLATFORM_SPI_HAL_THREAD_SAFETY
DYNALIB_FN(16, hal_spi, hal_spi_acquire, int32_t(hal_spi_interface_t, const hal_spi_acquire_config_t*))
 23fc80c:	b509      	push	{r0, r3, lr}
 23fc80e:	4804      	ldr	r0, [pc, #16]	; (23fc820 <hal_spi_acquire+0x14>)
 23fc810:	6800      	ldr	r0, [r0, #0]
 23fc812:	4b04      	ldr	r3, [pc, #16]	; (23fc824 <hal_spi_acquire+0x18>)
 23fc814:	4403      	add	r3, r0
 23fc816:	681b      	ldr	r3, [r3, #0]
 23fc818:	6c1b      	ldr	r3, [r3, #64]	; 0x40
 23fc81a:	9302      	str	r3, [sp, #8]
 23fc81c:	bd09      	pop	{r0, r3, pc}
 23fc81e:	0000      	.short	0x0000
 23fc820:	1007ace8 	.word	0x1007ace8
 23fc824:	00000018 	.word	0x00000018

023fc828 <hal_spi_release>:
DYNALIB_FN(17, hal_spi, hal_spi_release, int32_t(hal_spi_interface_t, void*))
 23fc828:	b509      	push	{r0, r3, lr}
 23fc82a:	4804      	ldr	r0, [pc, #16]	; (23fc83c <hal_spi_release+0x14>)
 23fc82c:	6800      	ldr	r0, [r0, #0]
 23fc82e:	4b04      	ldr	r3, [pc, #16]	; (23fc840 <hal_spi_release+0x18>)
 23fc830:	4403      	add	r3, r0
 23fc832:	681b      	ldr	r3, [r3, #0]
 23fc834:	6c5b      	ldr	r3, [r3, #68]	; 0x44
 23fc836:	9302      	str	r3, [sp, #8]
 23fc838:	bd09      	pop	{r0, r3, pc}
 23fc83a:	0000      	.short	0x0000
 23fc83c:	1007ace8 	.word	0x1007ace8
 23fc840:	00000018 	.word	0x00000018

023fc844 <hal_usart_write>:
#endif

DYNALIB_FN(BASE_IDX + 0, hal_usart, hal_usart_init, void(hal_usart_interface_t, hal_usart_ring_buffer_t*, hal_usart_ring_buffer_t*))
DYNALIB_FN(BASE_IDX + 1, hal_usart, hal_usart_begin, void(hal_usart_interface_t, uint32_t))
DYNALIB_FN(BASE_IDX + 2, hal_usart, hal_usart_end, void(hal_usart_interface_t))
DYNALIB_FN(BASE_IDX + 3, hal_usart, hal_usart_write, uint32_t(hal_usart_interface_t, uint8_t))
 23fc844:	b509      	push	{r0, r3, lr}
 23fc846:	4804      	ldr	r0, [pc, #16]	; (23fc858 <hal_usart_write+0x14>)
 23fc848:	6800      	ldr	r0, [r0, #0]
 23fc84a:	4b04      	ldr	r3, [pc, #16]	; (23fc85c <hal_usart_write+0x18>)
 23fc84c:	4403      	add	r3, r0
 23fc84e:	681b      	ldr	r3, [r3, #0]
 23fc850:	68db      	ldr	r3, [r3, #12]
 23fc852:	9302      	str	r3, [sp, #8]
 23fc854:	bd09      	pop	{r0, r3, pc}
 23fc856:	0000      	.short	0x0000
 23fc858:	1007ace8 	.word	0x1007ace8
 23fc85c:	00000024 	.word	0x00000024

023fc860 <hal_usart_available>:
DYNALIB_FN(BASE_IDX + 4, hal_usart, hal_usart_available, int32_t(hal_usart_interface_t))
 23fc860:	b509      	push	{r0, r3, lr}
 23fc862:	4804      	ldr	r0, [pc, #16]	; (23fc874 <hal_usart_available+0x14>)
 23fc864:	6800      	ldr	r0, [r0, #0]
 23fc866:	4b04      	ldr	r3, [pc, #16]	; (23fc878 <hal_usart_available+0x18>)
 23fc868:	4403      	add	r3, r0
 23fc86a:	681b      	ldr	r3, [r3, #0]
 23fc86c:	691b      	ldr	r3, [r3, #16]
 23fc86e:	9302      	str	r3, [sp, #8]
 23fc870:	bd09      	pop	{r0, r3, pc}
 23fc872:	0000      	.short	0x0000
 23fc874:	1007ace8 	.word	0x1007ace8
 23fc878:	00000024 	.word	0x00000024

023fc87c <hal_usart_read>:
DYNALIB_FN(BASE_IDX + 5, hal_usart, hal_usart_read, int32_t(hal_usart_interface_t))
 23fc87c:	b509      	push	{r0, r3, lr}
 23fc87e:	4804      	ldr	r0, [pc, #16]	; (23fc890 <hal_usart_read+0x14>)
 23fc880:	6800      	ldr	r0, [r0, #0]
 23fc882:	4b04      	ldr	r3, [pc, #16]	; (23fc894 <hal_usart_read+0x18>)
 23fc884:	4403      	add	r3, r0
 23fc886:	681b      	ldr	r3, [r3, #0]
 23fc888:	695b      	ldr	r3, [r3, #20]
 23fc88a:	9302      	str	r3, [sp, #8]
 23fc88c:	bd09      	pop	{r0, r3, pc}
 23fc88e:	0000      	.short	0x0000
 23fc890:	1007ace8 	.word	0x1007ace8
 23fc894:	00000024 	.word	0x00000024

023fc898 <hal_usart_peek>:
DYNALIB_FN(BASE_IDX + 6, hal_usart, hal_usart_peek, int32_t(hal_usart_interface_t))
 23fc898:	b509      	push	{r0, r3, lr}
 23fc89a:	4804      	ldr	r0, [pc, #16]	; (23fc8ac <hal_usart_peek+0x14>)
 23fc89c:	6800      	ldr	r0, [r0, #0]
 23fc89e:	4b04      	ldr	r3, [pc, #16]	; (23fc8b0 <hal_usart_peek+0x18>)
 23fc8a0:	4403      	add	r3, r0
 23fc8a2:	681b      	ldr	r3, [r3, #0]
 23fc8a4:	699b      	ldr	r3, [r3, #24]
 23fc8a6:	9302      	str	r3, [sp, #8]
 23fc8a8:	bd09      	pop	{r0, r3, pc}
 23fc8aa:	0000      	.short	0x0000
 23fc8ac:	1007ace8 	.word	0x1007ace8
 23fc8b0:	00000024 	.word	0x00000024

023fc8b4 <hal_usart_flush>:
DYNALIB_FN(BASE_IDX + 7, hal_usart, hal_usart_flush, void(hal_usart_interface_t))
 23fc8b4:	b509      	push	{r0, r3, lr}
 23fc8b6:	4804      	ldr	r0, [pc, #16]	; (23fc8c8 <hal_usart_flush+0x14>)
 23fc8b8:	6800      	ldr	r0, [r0, #0]
 23fc8ba:	4b04      	ldr	r3, [pc, #16]	; (23fc8cc <hal_usart_flush+0x18>)
 23fc8bc:	4403      	add	r3, r0
 23fc8be:	681b      	ldr	r3, [r3, #0]
 23fc8c0:	69db      	ldr	r3, [r3, #28]
 23fc8c2:	9302      	str	r3, [sp, #8]
 23fc8c4:	bd09      	pop	{r0, r3, pc}
 23fc8c6:	0000      	.short	0x0000
 23fc8c8:	1007ace8 	.word	0x1007ace8
 23fc8cc:	00000024 	.word	0x00000024

023fc8d0 <hal_usart_is_enabled>:
DYNALIB_FN(BASE_IDX + 8, hal_usart, hal_usart_is_enabled, bool(hal_usart_interface_t))
 23fc8d0:	b509      	push	{r0, r3, lr}
 23fc8d2:	4804      	ldr	r0, [pc, #16]	; (23fc8e4 <hal_usart_is_enabled+0x14>)
 23fc8d4:	6800      	ldr	r0, [r0, #0]
 23fc8d6:	4b04      	ldr	r3, [pc, #16]	; (23fc8e8 <hal_usart_is_enabled+0x18>)
 23fc8d8:	4403      	add	r3, r0
 23fc8da:	681b      	ldr	r3, [r3, #0]
 23fc8dc:	6a1b      	ldr	r3, [r3, #32]
 23fc8de:	9302      	str	r3, [sp, #8]
 23fc8e0:	bd09      	pop	{r0, r3, pc}
 23fc8e2:	0000      	.short	0x0000
 23fc8e4:	1007ace8 	.word	0x1007ace8
 23fc8e8:	00000024 	.word	0x00000024

023fc8ec <hal_usart_available_data_for_write>:
DYNALIB_FN(BASE_IDX + 9, hal_usart, hal_usart_half_duplex, void(hal_usart_interface_t, bool))
DYNALIB_FN(BASE_IDX + 10, hal_usart, hal_usart_available_data_for_write, int32_t(hal_usart_interface_t))
 23fc8ec:	b509      	push	{r0, r3, lr}
 23fc8ee:	4804      	ldr	r0, [pc, #16]	; (23fc900 <hal_usart_available_data_for_write+0x14>)
 23fc8f0:	6800      	ldr	r0, [r0, #0]
 23fc8f2:	4b04      	ldr	r3, [pc, #16]	; (23fc904 <hal_usart_available_data_for_write+0x18>)
 23fc8f4:	4403      	add	r3, r0
 23fc8f6:	681b      	ldr	r3, [r3, #0]
 23fc8f8:	6a9b      	ldr	r3, [r3, #40]	; 0x28
 23fc8fa:	9302      	str	r3, [sp, #8]
 23fc8fc:	bd09      	pop	{r0, r3, pc}
 23fc8fe:	0000      	.short	0x0000
 23fc900:	1007ace8 	.word	0x1007ace8
 23fc904:	00000024 	.word	0x00000024

023fc908 <hal_usart_init_ex>:
DYNALIB_FN(BASE_IDX2 + 0, hal_usart, hal_usart_begin_config, void(hal_usart_interface_t serial, uint32_t baud, uint32_t config, void *ptr))
DYNALIB_FN(BASE_IDX2 + 1, hal_usart, hal_usart_write_nine_bits, uint32_t(hal_usart_interface_t serial, uint16_t data))
DYNALIB_FN(BASE_IDX2 + 2, hal_usart, hal_usart_send_break, void(hal_usart_interface_t, void*))
DYNALIB_FN(BASE_IDX2 + 3, hal_usart, hal_usart_break_detected, uint8_t(hal_usart_interface_t))
DYNALIB_FN(BASE_IDX2 + 4, hal_usart, hal_usart_sleep, int(hal_usart_interface_t serial, bool, void*))
DYNALIB_FN(BASE_IDX2 + 5, hal_usart, hal_usart_init_ex, int(hal_usart_interface_t, const hal_usart_buffer_config_t*, void*))
 23fc908:	b509      	push	{r0, r3, lr}
 23fc90a:	4804      	ldr	r0, [pc, #16]	; (23fc91c <hal_usart_init_ex+0x14>)
 23fc90c:	6800      	ldr	r0, [r0, #0]
 23fc90e:	4b04      	ldr	r3, [pc, #16]	; (23fc920 <hal_usart_init_ex+0x18>)
 23fc910:	4403      	add	r3, r0
 23fc912:	681b      	ldr	r3, [r3, #0]
 23fc914:	6c1b      	ldr	r3, [r3, #64]	; 0x40
 23fc916:	9302      	str	r3, [sp, #8]
 23fc918:	bd09      	pop	{r0, r3, pc}
 23fc91a:	0000      	.short	0x0000
 23fc91c:	1007ace8 	.word	0x1007ace8
 23fc920:	00000024 	.word	0x00000024

023fc924 <HAL_USB_USART_Init>:
// GNINRAW

DYNALIB_BEGIN(hal_usb)

#ifdef USB_CDC_ENABLE
DYNALIB_FN(0, hal_usb, HAL_USB_USART_Init, void(HAL_USB_USART_Serial, const HAL_USB_USART_Config*))
 23fc924:	b509      	push	{r0, r3, lr}
 23fc926:	4804      	ldr	r0, [pc, #16]	; (23fc938 <HAL_USB_USART_Init+0x14>)
 23fc928:	6800      	ldr	r0, [r0, #0]
 23fc92a:	4b04      	ldr	r3, [pc, #16]	; (23fc93c <HAL_USB_USART_Init+0x18>)
 23fc92c:	4403      	add	r3, r0
 23fc92e:	681b      	ldr	r3, [r3, #0]
 23fc930:	681b      	ldr	r3, [r3, #0]
 23fc932:	9302      	str	r3, [sp, #8]
 23fc934:	bd09      	pop	{r0, r3, pc}
 23fc936:	0000      	.short	0x0000
 23fc938:	1007ace8 	.word	0x1007ace8
 23fc93c:	00000034 	.word	0x00000034

023fc940 <HAL_USB_USART_Begin>:
DYNALIB_FN(1, hal_usb, HAL_USB_USART_Begin, void(HAL_USB_USART_Serial, uint32_t, void *))
 23fc940:	b509      	push	{r0, r3, lr}
 23fc942:	4804      	ldr	r0, [pc, #16]	; (23fc954 <HAL_USB_USART_Begin+0x14>)
 23fc944:	6800      	ldr	r0, [r0, #0]
 23fc946:	4b04      	ldr	r3, [pc, #16]	; (23fc958 <HAL_USB_USART_Begin+0x18>)
 23fc948:	4403      	add	r3, r0
 23fc94a:	681b      	ldr	r3, [r3, #0]
 23fc94c:	685b      	ldr	r3, [r3, #4]
 23fc94e:	9302      	str	r3, [sp, #8]
 23fc950:	bd09      	pop	{r0, r3, pc}
 23fc952:	0000      	.short	0x0000
 23fc954:	1007ace8 	.word	0x1007ace8
 23fc958:	00000034 	.word	0x00000034

023fc95c <HAL_USB_USART_Available_Data>:
DYNALIB_FN(2, hal_usb, HAL_USB_USART_End, void(HAL_USB_USART_Serial))
DYNALIB_FN(3, hal_usb, HAL_USB_USART_Baud_Rate, unsigned int(HAL_USB_USART_Serial))
DYNALIB_FN_WRAP(4, hal_usb, HAL_USB_USART_Available_Data, protected, int32_t(HAL_USB_USART_Serial))
 23fc95c:	b509      	push	{r0, r3, lr}
 23fc95e:	4804      	ldr	r0, [pc, #16]	; (23fc970 <HAL_USB_USART_Available_Data+0x14>)
 23fc960:	6800      	ldr	r0, [r0, #0]
 23fc962:	4b04      	ldr	r3, [pc, #16]	; (23fc974 <HAL_USB_USART_Available_Data+0x18>)
 23fc964:	4403      	add	r3, r0
 23fc966:	681b      	ldr	r3, [r3, #0]
 23fc968:	691b      	ldr	r3, [r3, #16]
 23fc96a:	9302      	str	r3, [sp, #8]
 23fc96c:	bd09      	pop	{r0, r3, pc}
 23fc96e:	0000      	.short	0x0000
 23fc970:	1007ace8 	.word	0x1007ace8
 23fc974:	00000034 	.word	0x00000034

023fc978 <HAL_USB_USART_Available_Data_For_Write>:
DYNALIB_FN_WRAP(5, hal_usb, HAL_USB_USART_Available_Data_For_Write, protected, int32_t(HAL_USB_USART_Serial))
 23fc978:	b509      	push	{r0, r3, lr}
 23fc97a:	4804      	ldr	r0, [pc, #16]	; (23fc98c <HAL_USB_USART_Available_Data_For_Write+0x14>)
 23fc97c:	6800      	ldr	r0, [r0, #0]
 23fc97e:	4b04      	ldr	r3, [pc, #16]	; (23fc990 <HAL_USB_USART_Available_Data_For_Write+0x18>)
 23fc980:	4403      	add	r3, r0
 23fc982:	681b      	ldr	r3, [r3, #0]
 23fc984:	695b      	ldr	r3, [r3, #20]
 23fc986:	9302      	str	r3, [sp, #8]
 23fc988:	bd09      	pop	{r0, r3, pc}
 23fc98a:	0000      	.short	0x0000
 23fc98c:	1007ace8 	.word	0x1007ace8
 23fc990:	00000034 	.word	0x00000034

023fc994 <HAL_USB_USART_Receive_Data>:
DYNALIB_FN_WRAP(6, hal_usb, HAL_USB_USART_Receive_Data, protected, int32_t(HAL_USB_USART_Serial, uint8_t))
 23fc994:	b509      	push	{r0, r3, lr}
 23fc996:	4804      	ldr	r0, [pc, #16]	; (23fc9a8 <HAL_USB_USART_Receive_Data+0x14>)
 23fc998:	6800      	ldr	r0, [r0, #0]
 23fc99a:	4b04      	ldr	r3, [pc, #16]	; (23fc9ac <HAL_USB_USART_Receive_Data+0x18>)
 23fc99c:	4403      	add	r3, r0
 23fc99e:	681b      	ldr	r3, [r3, #0]
 23fc9a0:	699b      	ldr	r3, [r3, #24]
 23fc9a2:	9302      	str	r3, [sp, #8]
 23fc9a4:	bd09      	pop	{r0, r3, pc}
 23fc9a6:	0000      	.short	0x0000
 23fc9a8:	1007ace8 	.word	0x1007ace8
 23fc9ac:	00000034 	.word	0x00000034

023fc9b0 <HAL_USB_USART_Send_Data>:
DYNALIB_FN_WRAP(7, hal_usb, HAL_USB_USART_Send_Data, protected, int32_t(HAL_USB_USART_Serial, uint8_t))
 23fc9b0:	b509      	push	{r0, r3, lr}
 23fc9b2:	4804      	ldr	r0, [pc, #16]	; (23fc9c4 <HAL_USB_USART_Send_Data+0x14>)
 23fc9b4:	6800      	ldr	r0, [r0, #0]
 23fc9b6:	4b04      	ldr	r3, [pc, #16]	; (23fc9c8 <HAL_USB_USART_Send_Data+0x18>)
 23fc9b8:	4403      	add	r3, r0
 23fc9ba:	681b      	ldr	r3, [r3, #0]
 23fc9bc:	69db      	ldr	r3, [r3, #28]
 23fc9be:	9302      	str	r3, [sp, #8]
 23fc9c0:	bd09      	pop	{r0, r3, pc}
 23fc9c2:	0000      	.short	0x0000
 23fc9c4:	1007ace8 	.word	0x1007ace8
 23fc9c8:	00000034 	.word	0x00000034

023fc9cc <HAL_USB_USART_Flush_Data>:
DYNALIB_FN_WRAP(8, hal_usb, HAL_USB_USART_Flush_Data, protected, void(HAL_USB_USART_Serial))
 23fc9cc:	b509      	push	{r0, r3, lr}
 23fc9ce:	4804      	ldr	r0, [pc, #16]	; (23fc9e0 <HAL_USB_USART_Flush_Data+0x14>)
 23fc9d0:	6800      	ldr	r0, [r0, #0]
 23fc9d2:	4b04      	ldr	r3, [pc, #16]	; (23fc9e4 <HAL_USB_USART_Flush_Data+0x18>)
 23fc9d4:	4403      	add	r3, r0
 23fc9d6:	681b      	ldr	r3, [r3, #0]
 23fc9d8:	6a1b      	ldr	r3, [r3, #32]
 23fc9da:	9302      	str	r3, [sp, #8]
 23fc9dc:	bd09      	pop	{r0, r3, pc}
 23fc9de:	0000      	.short	0x0000
 23fc9e0:	1007ace8 	.word	0x1007ace8
 23fc9e4:	00000034 	.word	0x00000034

023fc9e8 <log_message_v>:
DYNALIB_FN(17, services, LED_RGB_SetChangeHandler, void(led_update_handler_fn, void*))
DYNALIB_FN(18, services, log_print_direct_, void(int, void*, const char*, ...)) // Deprecated
DYNALIB_FN(19, services, LED_GetColor, uint32_t(uint32_t, void*))

DYNALIB_FN(20, services, log_message, void(int, const char*, LogAttributes*, void*, const char*, ...))
DYNALIB_FN(21, services, log_message_v, void(int, const char*, LogAttributes*, void*, const char*, va_list))
 23fc9e8:	b509      	push	{r0, r3, lr}
 23fc9ea:	4804      	ldr	r0, [pc, #16]	; (23fc9fc <log_message_v+0x14>)
 23fc9ec:	6800      	ldr	r0, [r0, #0]
 23fc9ee:	4b04      	ldr	r3, [pc, #16]	; (23fca00 <log_message_v+0x18>)
 23fc9f0:	4403      	add	r3, r0
 23fc9f2:	681b      	ldr	r3, [r3, #0]
 23fc9f4:	6d5b      	ldr	r3, [r3, #84]	; 0x54
 23fc9f6:	9302      	str	r3, [sp, #8]
 23fc9f8:	bd09      	pop	{r0, r3, pc}
 23fc9fa:	0000      	.short	0x0000
 23fc9fc:	1007ace8 	.word	0x1007ace8
 23fca00:	00000048 	.word	0x00000048

023fca04 <spark_variable>:
#endif


DYNALIB_BEGIN(system_cloud)

DYNALIB_FN(0, system_cloud, spark_variable, bool(const char*, const void*, Spark_Data_TypeDef, spark_variable_t*))
 23fca04:	b509      	push	{r0, r3, lr}
 23fca06:	4804      	ldr	r0, [pc, #16]	; (23fca18 <spark_variable+0x14>)
 23fca08:	6800      	ldr	r0, [r0, #0]
 23fca0a:	4b04      	ldr	r3, [pc, #16]	; (23fca1c <spark_variable+0x18>)
 23fca0c:	4403      	add	r3, r0
 23fca0e:	681b      	ldr	r3, [r3, #0]
 23fca10:	681b      	ldr	r3, [r3, #0]
 23fca12:	9302      	str	r3, [sp, #8]
 23fca14:	bd09      	pop	{r0, r3, pc}
 23fca16:	0000      	.short	0x0000
 23fca18:	1007ace8 	.word	0x1007ace8
 23fca1c:	0000002c 	.word	0x0000002c

023fca20 <spark_function>:
DYNALIB_FN(1, system_cloud, spark_function, bool(const char*, p_user_function_int_str_t, void*))
 23fca20:	b509      	push	{r0, r3, lr}
 23fca22:	4804      	ldr	r0, [pc, #16]	; (23fca34 <spark_function+0x14>)
 23fca24:	6800      	ldr	r0, [r0, #0]
 23fca26:	4b04      	ldr	r3, [pc, #16]	; (23fca38 <spark_function+0x18>)
 23fca28:	4403      	add	r3, r0
 23fca2a:	681b      	ldr	r3, [r3, #0]
 23fca2c:	685b      	ldr	r3, [r3, #4]
 23fca2e:	9302      	str	r3, [sp, #8]
 23fca30:	bd09      	pop	{r0, r3, pc}
 23fca32:	0000      	.short	0x0000
 23fca34:	1007ace8 	.word	0x1007ace8
 23fca38:	0000002c 	.word	0x0000002c

023fca3c <spark_set_random_seed_from_cloud_handler>:
DYNALIB_FN(10, system_cloud, spark_unsubscribe, void(void*))
DYNALIB_FN(11, system_cloud, spark_sync_time, bool(void*))
DYNALIB_FN(12, system_cloud, spark_sync_time_pending, bool(void*))
DYNALIB_FN(13, system_cloud, spark_sync_time_last, system_tick_t(time32_t*, time_t*))
DYNALIB_FN(14, system_cloud, spark_set_connection_property, int(unsigned, unsigned, const void*, void*))
DYNALIB_FN(15, system_cloud, spark_set_random_seed_from_cloud_handler, int(void (*handler)(unsigned int), void*))
 23fca3c:	b509      	push	{r0, r3, lr}
 23fca3e:	4804      	ldr	r0, [pc, #16]	; (23fca50 <spark_set_random_seed_from_cloud_handler+0x14>)
 23fca40:	6800      	ldr	r0, [r0, #0]
 23fca42:	4b04      	ldr	r3, [pc, #16]	; (23fca54 <spark_set_random_seed_from_cloud_handler+0x18>)
 23fca44:	4403      	add	r3, r0
 23fca46:	681b      	ldr	r3, [r3, #0]
 23fca48:	6bdb      	ldr	r3, [r3, #60]	; 0x3c
 23fca4a:	9302      	str	r3, [sp, #8]
 23fca4c:	bd09      	pop	{r0, r3, pc}
 23fca4e:	0000      	.short	0x0000
 23fca50:	1007ace8 	.word	0x1007ace8
 23fca54:	0000002c 	.word	0x0000002c

023fca58 <network_connect>:
#endif

DYNALIB_BEGIN(system_net)

DYNALIB_FN(0, system_net, network_config, const void*(network_handle_t, uint32_t, void*))
DYNALIB_FN(1, system_net, network_connect, void(network_handle_t, uint32_t, uint32_t, void*))
 23fca58:	b509      	push	{r0, r3, lr}
 23fca5a:	4804      	ldr	r0, [pc, #16]	; (23fca6c <network_connect+0x14>)
 23fca5c:	6800      	ldr	r0, [r0, #0]
 23fca5e:	4b04      	ldr	r3, [pc, #16]	; (23fca70 <network_connect+0x18>)
 23fca60:	4403      	add	r3, r0
 23fca62:	681b      	ldr	r3, [r3, #0]
 23fca64:	685b      	ldr	r3, [r3, #4]
 23fca66:	9302      	str	r3, [sp, #8]
 23fca68:	bd09      	pop	{r0, r3, pc}
 23fca6a:	0000      	.short	0x0000
 23fca6c:	1007ace8 	.word	0x1007ace8
 23fca70:	00000028 	.word	0x00000028

023fca74 <network_connecting>:
DYNALIB_FN(2, system_net, network_connecting, bool(network_handle_t, uint32_t, void*))
 23fca74:	b509      	push	{r0, r3, lr}
 23fca76:	4804      	ldr	r0, [pc, #16]	; (23fca88 <network_connecting+0x14>)
 23fca78:	6800      	ldr	r0, [r0, #0]
 23fca7a:	4b04      	ldr	r3, [pc, #16]	; (23fca8c <network_connecting+0x18>)
 23fca7c:	4403      	add	r3, r0
 23fca7e:	681b      	ldr	r3, [r3, #0]
 23fca80:	689b      	ldr	r3, [r3, #8]
 23fca82:	9302      	str	r3, [sp, #8]
 23fca84:	bd09      	pop	{r0, r3, pc}
 23fca86:	0000      	.short	0x0000
 23fca88:	1007ace8 	.word	0x1007ace8
 23fca8c:	00000028 	.word	0x00000028

023fca90 <network_disconnect>:
DYNALIB_FN(3, system_net, network_disconnect, void(network_handle_t, uint32_t, void*))
 23fca90:	b509      	push	{r0, r3, lr}
 23fca92:	4804      	ldr	r0, [pc, #16]	; (23fcaa4 <network_disconnect+0x14>)
 23fca94:	6800      	ldr	r0, [r0, #0]
 23fca96:	4b04      	ldr	r3, [pc, #16]	; (23fcaa8 <network_disconnect+0x18>)
 23fca98:	4403      	add	r3, r0
 23fca9a:	681b      	ldr	r3, [r3, #0]
 23fca9c:	68db      	ldr	r3, [r3, #12]
 23fca9e:	9302      	str	r3, [sp, #8]
 23fcaa0:	bd09      	pop	{r0, r3, pc}
 23fcaa2:	0000      	.short	0x0000
 23fcaa4:	1007ace8 	.word	0x1007ace8
 23fcaa8:	00000028 	.word	0x00000028

023fcaac <network_ready>:
DYNALIB_FN(4, system_net, network_ready, bool(network_handle_t, uint32_t, void*))
 23fcaac:	b509      	push	{r0, r3, lr}
 23fcaae:	4804      	ldr	r0, [pc, #16]	; (23fcac0 <network_ready+0x14>)
 23fcab0:	6800      	ldr	r0, [r0, #0]
 23fcab2:	4b04      	ldr	r3, [pc, #16]	; (23fcac4 <network_ready+0x18>)
 23fcab4:	4403      	add	r3, r0
 23fcab6:	681b      	ldr	r3, [r3, #0]
 23fcab8:	691b      	ldr	r3, [r3, #16]
 23fcaba:	9302      	str	r3, [sp, #8]
 23fcabc:	bd09      	pop	{r0, r3, pc}
 23fcabe:	0000      	.short	0x0000
 23fcac0:	1007ace8 	.word	0x1007ace8
 23fcac4:	00000028 	.word	0x00000028

023fcac8 <network_on>:
DYNALIB_FN(5, system_net, network_on, void(network_handle_t, uint32_t, uint32_t, void*))
 23fcac8:	b509      	push	{r0, r3, lr}
 23fcaca:	4804      	ldr	r0, [pc, #16]	; (23fcadc <network_on+0x14>)
 23fcacc:	6800      	ldr	r0, [r0, #0]
 23fcace:	4b04      	ldr	r3, [pc, #16]	; (23fcae0 <network_on+0x18>)
 23fcad0:	4403      	add	r3, r0
 23fcad2:	681b      	ldr	r3, [r3, #0]
 23fcad4:	695b      	ldr	r3, [r3, #20]
 23fcad6:	9302      	str	r3, [sp, #8]
 23fcad8:	bd09      	pop	{r0, r3, pc}
 23fcada:	0000      	.short	0x0000
 23fcadc:	1007ace8 	.word	0x1007ace8
 23fcae0:	00000028 	.word	0x00000028

023fcae4 <network_off>:
DYNALIB_FN(6, system_net, network_off, void(network_handle_t, uint32_t, uint32_t, void*))
 23fcae4:	b509      	push	{r0, r3, lr}
 23fcae6:	4804      	ldr	r0, [pc, #16]	; (23fcaf8 <network_off+0x14>)
 23fcae8:	6800      	ldr	r0, [r0, #0]
 23fcaea:	4b04      	ldr	r3, [pc, #16]	; (23fcafc <network_off+0x18>)
 23fcaec:	4403      	add	r3, r0
 23fcaee:	681b      	ldr	r3, [r3, #0]
 23fcaf0:	699b      	ldr	r3, [r3, #24]
 23fcaf2:	9302      	str	r3, [sp, #8]
 23fcaf4:	bd09      	pop	{r0, r3, pc}
 23fcaf6:	0000      	.short	0x0000
 23fcaf8:	1007ace8 	.word	0x1007ace8
 23fcafc:	00000028 	.word	0x00000028

023fcb00 <network_listen>:
DYNALIB_FN(7, system_net, network_listen, void(network_handle_t, uint32_t, void*))
 23fcb00:	b509      	push	{r0, r3, lr}
 23fcb02:	4804      	ldr	r0, [pc, #16]	; (23fcb14 <network_listen+0x14>)
 23fcb04:	6800      	ldr	r0, [r0, #0]
 23fcb06:	4b04      	ldr	r3, [pc, #16]	; (23fcb18 <network_listen+0x18>)
 23fcb08:	4403      	add	r3, r0
 23fcb0a:	681b      	ldr	r3, [r3, #0]
 23fcb0c:	69db      	ldr	r3, [r3, #28]
 23fcb0e:	9302      	str	r3, [sp, #8]
 23fcb10:	bd09      	pop	{r0, r3, pc}
 23fcb12:	0000      	.short	0x0000
 23fcb14:	1007ace8 	.word	0x1007ace8
 23fcb18:	00000028 	.word	0x00000028

023fcb1c <network_listening>:
DYNALIB_FN(8, system_net, network_listening, bool(network_handle_t, uint32_t, void*))
 23fcb1c:	b509      	push	{r0, r3, lr}
 23fcb1e:	4804      	ldr	r0, [pc, #16]	; (23fcb30 <network_listening+0x14>)
 23fcb20:	6800      	ldr	r0, [r0, #0]
 23fcb22:	4b04      	ldr	r3, [pc, #16]	; (23fcb34 <network_listening+0x18>)
 23fcb24:	4403      	add	r3, r0
 23fcb26:	681b      	ldr	r3, [r3, #0]
 23fcb28:	6a1b      	ldr	r3, [r3, #32]
 23fcb2a:	9302      	str	r3, [sp, #8]
 23fcb2c:	bd09      	pop	{r0, r3, pc}
 23fcb2e:	0000      	.short	0x0000
 23fcb30:	1007ace8 	.word	0x1007ace8
 23fcb34:	00000028 	.word	0x00000028

023fcb38 <network_set_listen_timeout>:
DYNALIB_FN(9, system_net, network_has_credentials, bool(network_handle_t, uint32_t, void*))
DYNALIB_FN(10, system_net, network_set_credentials, int(network_handle_t, uint32_t, NetworkCredentials*, void*))
DYNALIB_FN(11, system_net, network_clear_credentials, bool(network_handle_t, uint32_t, NetworkCredentials*, void*))
DYNALIB_FN(12, system_net, network_set_listen_timeout, void(network_handle_t, uint16_t, void*))
 23fcb38:	b509      	push	{r0, r3, lr}
 23fcb3a:	4804      	ldr	r0, [pc, #16]	; (23fcb4c <network_set_listen_timeout+0x14>)
 23fcb3c:	6800      	ldr	r0, [r0, #0]
 23fcb3e:	4b04      	ldr	r3, [pc, #16]	; (23fcb50 <network_set_listen_timeout+0x18>)
 23fcb40:	4403      	add	r3, r0
 23fcb42:	681b      	ldr	r3, [r3, #0]
 23fcb44:	6b1b      	ldr	r3, [r3, #48]	; 0x30
 23fcb46:	9302      	str	r3, [sp, #8]
 23fcb48:	bd09      	pop	{r0, r3, pc}
 23fcb4a:	0000      	.short	0x0000
 23fcb4c:	1007ace8 	.word	0x1007ace8
 23fcb50:	00000028 	.word	0x00000028

023fcb54 <network_get_listen_timeout>:
DYNALIB_FN(13, system_net, network_get_listen_timeout, uint16_t(network_handle_t, uint32_t, void*))
 23fcb54:	b509      	push	{r0, r3, lr}
 23fcb56:	4804      	ldr	r0, [pc, #16]	; (23fcb68 <network_get_listen_timeout+0x14>)
 23fcb58:	6800      	ldr	r0, [r0, #0]
 23fcb5a:	4b04      	ldr	r3, [pc, #16]	; (23fcb6c <network_get_listen_timeout+0x18>)
 23fcb5c:	4403      	add	r3, r0
 23fcb5e:	681b      	ldr	r3, [r3, #0]
 23fcb60:	6b5b      	ldr	r3, [r3, #52]	; 0x34
 23fcb62:	9302      	str	r3, [sp, #8]
 23fcb64:	bd09      	pop	{r0, r3, pc}
 23fcb66:	0000      	.short	0x0000
 23fcb68:	1007ace8 	.word	0x1007ace8
 23fcb6c:	00000028 	.word	0x00000028

023fcb70 <network_is_on>:
DYNALIB_FN(14, system_net, network_set_hostname, int(network_handle_t, uint32_t, const char*, void*))
DYNALIB_FN(15, system_net, network_get_hostname, int(network_handle_t, uint32_t, char*, size_t, void*))
DYNALIB_FN(16, system_net, network_is_on, bool(network_handle_t, void*))
 23fcb70:	b509      	push	{r0, r3, lr}
 23fcb72:	4804      	ldr	r0, [pc, #16]	; (23fcb84 <network_is_on+0x14>)
 23fcb74:	6800      	ldr	r0, [r0, #0]
 23fcb76:	4b04      	ldr	r3, [pc, #16]	; (23fcb88 <network_is_on+0x18>)
 23fcb78:	4403      	add	r3, r0
 23fcb7a:	681b      	ldr	r3, [r3, #0]
 23fcb7c:	6c1b      	ldr	r3, [r3, #64]	; 0x40
 23fcb7e:	9302      	str	r3, [sp, #8]
 23fcb80:	bd09      	pop	{r0, r3, pc}
 23fcb82:	0000      	.short	0x0000
 23fcb84:	1007ace8 	.word	0x1007ace8
 23fcb88:	00000028 	.word	0x00000028

023fcb8c <network_is_off>:
DYNALIB_FN(17, system_net, network_is_off, bool(network_handle_t, void*))
 23fcb8c:	b509      	push	{r0, r3, lr}
 23fcb8e:	4804      	ldr	r0, [pc, #16]	; (23fcba0 <network_is_off+0x14>)
 23fcb90:	6800      	ldr	r0, [r0, #0]
 23fcb92:	4b04      	ldr	r3, [pc, #16]	; (23fcba4 <network_is_off+0x18>)
 23fcb94:	4403      	add	r3, r0
 23fcb96:	681b      	ldr	r3, [r3, #0]
 23fcb98:	6c5b      	ldr	r3, [r3, #68]	; 0x44
 23fcb9a:	9302      	str	r3, [sp, #8]
 23fcb9c:	bd09      	pop	{r0, r3, pc}
 23fcb9e:	0000      	.short	0x0000
 23fcba0:	1007ace8 	.word	0x1007ace8
 23fcba4:	00000028 	.word	0x00000028

023fcba8 <network_prefer>:
DYNALIB_FN(18, system_net, network_set_configuration, int(network_handle_t, const network_configuration_t*, void*))
DYNALIB_FN(19, system_net, network_get_configuration, int(network_handle_t, network_configuration_t**, size_t*, const char*, size_t, void*))
DYNALIB_FN(20, system_net, network_free_configuration, int(network_configuration_t*, size_t, void*))
DYNALIB_FN(21, system_net, network_prefer, network_handle_t(network_handle_t, bool, void*))
 23fcba8:	b509      	push	{r0, r3, lr}
 23fcbaa:	4804      	ldr	r0, [pc, #16]	; (23fcbbc <network_prefer+0x14>)
 23fcbac:	6800      	ldr	r0, [r0, #0]
 23fcbae:	4b04      	ldr	r3, [pc, #16]	; (23fcbc0 <network_prefer+0x18>)
 23fcbb0:	4403      	add	r3, r0
 23fcbb2:	681b      	ldr	r3, [r3, #0]
 23fcbb4:	6d5b      	ldr	r3, [r3, #84]	; 0x54
 23fcbb6:	9302      	str	r3, [sp, #8]
 23fcbb8:	bd09      	pop	{r0, r3, pc}
 23fcbba:	0000      	.short	0x0000
 23fcbbc:	1007ace8 	.word	0x1007ace8
 23fcbc0:	00000028 	.word	0x00000028

023fcbc4 <network_is_preferred>:
DYNALIB_FN(22, system_net, network_is_preferred, bool(network_handle_t, void*))
 23fcbc4:	b509      	push	{r0, r3, lr}
 23fcbc6:	4804      	ldr	r0, [pc, #16]	; (23fcbd8 <network_is_preferred+0x14>)
 23fcbc8:	6800      	ldr	r0, [r0, #0]
 23fcbca:	4b04      	ldr	r3, [pc, #16]	; (23fcbdc <network_is_preferred+0x18>)
 23fcbcc:	4403      	add	r3, r0
 23fcbce:	681b      	ldr	r3, [r3, #0]
 23fcbd0:	6d9b      	ldr	r3, [r3, #88]	; 0x58
 23fcbd2:	9302      	str	r3, [sp, #8]
 23fcbd4:	bd09      	pop	{r0, r3, pc}
 23fcbd6:	0000      	.short	0x0000
 23fcbd8:	1007ace8 	.word	0x1007ace8
 23fcbdc:	00000028 	.word	0x00000028

023fcbe0 <set_system_mode>:
#endif

DYNALIB_BEGIN(system)

DYNALIB_FN(0, system, system_mode, System_Mode_TypeDef(void))
DYNALIB_FN(1, system, set_system_mode, void(System_Mode_TypeDef))
 23fcbe0:	b509      	push	{r0, r3, lr}
 23fcbe2:	4804      	ldr	r0, [pc, #16]	; (23fcbf4 <set_system_mode+0x14>)
 23fcbe4:	6800      	ldr	r0, [r0, #0]
 23fcbe6:	4b04      	ldr	r3, [pc, #16]	; (23fcbf8 <set_system_mode+0x18>)
 23fcbe8:	4403      	add	r3, r0
 23fcbea:	681b      	ldr	r3, [r3, #0]
 23fcbec:	685b      	ldr	r3, [r3, #4]
 23fcbee:	9302      	str	r3, [sp, #8]
 23fcbf0:	bd09      	pop	{r0, r3, pc}
 23fcbf2:	0000      	.short	0x0000
 23fcbf4:	1007ace8 	.word	0x1007ace8
 23fcbf8:	00000008 	.word	0x00000008

023fcbfc <system_delay_ms>:

DYNALIB_FN(2, system, set_ymodem_serial_flash_update_handler_deprecated, void(void*))
DYNALIB_FN(3, system, system_firmwareUpdate_deprecated, bool(Stream*, void*))
DYNALIB_FN(4, system, system_fileTransfer_deprecated, bool(system_file_transfer_t*, void*))

DYNALIB_FN(5, system, system_delay_ms, void(unsigned long, bool))
 23fcbfc:	b509      	push	{r0, r3, lr}
 23fcbfe:	4804      	ldr	r0, [pc, #16]	; (23fcc10 <system_delay_ms+0x14>)
 23fcc00:	6800      	ldr	r0, [r0, #0]
 23fcc02:	4b04      	ldr	r3, [pc, #16]	; (23fcc14 <system_delay_ms+0x18>)
 23fcc04:	4403      	add	r3, r0
 23fcc06:	681b      	ldr	r3, [r3, #0]
 23fcc08:	695b      	ldr	r3, [r3, #20]
 23fcc0a:	9302      	str	r3, [sp, #8]
 23fcc0c:	bd09      	pop	{r0, r3, pc}
 23fcc0e:	0000      	.short	0x0000
 23fcc10:	1007ace8 	.word	0x1007ace8
 23fcc14:	00000008 	.word	0x00000008

023fcc18 <system_ctrl_set_app_request_handler>:
DYNALIB_FN(BASE_IDX + 6, system, led_pattern_period, uint16_t(int, int, void*))
DYNALIB_FN(BASE_IDX + 7, system, system_set_tester_handlers, int(system_tester_handlers_t*, void*))
DYNALIB_FN(BASE_IDX + 8, system, system_format_diag_data, int(const uint16_t*, size_t, unsigned, appender_fn, void*, void*))

// Control requests
DYNALIB_FN(BASE_IDX + 9, system, system_ctrl_set_app_request_handler, int(ctrl_request_handler_fn, void*))
 23fcc18:	b509      	push	{r0, r3, lr}
 23fcc1a:	4804      	ldr	r0, [pc, #16]	; (23fcc2c <system_ctrl_set_app_request_handler+0x14>)
 23fcc1c:	6800      	ldr	r0, [r0, #0]
 23fcc1e:	4b04      	ldr	r3, [pc, #16]	; (23fcc30 <system_ctrl_set_app_request_handler+0x18>)
 23fcc20:	4403      	add	r3, r0
 23fcc22:	681b      	ldr	r3, [r3, #0]
 23fcc24:	f8d3 3088 	ldr.w	r3, [r3, #136]	; 0x88
 23fcc28:	9302      	str	r3, [sp, #8]
 23fcc2a:	bd09      	pop	{r0, r3, pc}
 23fcc2c:	1007ace8 	.word	0x1007ace8
 23fcc30:	00000008 	.word	0x00000008

023fcc34 <system_ctrl_set_result>:
DYNALIB_FN(BASE_IDX + 10, system, system_ctrl_alloc_reply_data, int(ctrl_request*, size_t, void*))
DYNALIB_FN(BASE_IDX + 11, system, system_ctrl_free_request_data, void(ctrl_request*, void*))
DYNALIB_FN(BASE_IDX + 12, system, system_ctrl_set_result, void(ctrl_request*, int, ctrl_completion_handler_fn, void*, void*))
 23fcc34:	b509      	push	{r0, r3, lr}
 23fcc36:	4804      	ldr	r0, [pc, #16]	; (23fcc48 <system_ctrl_set_result+0x14>)
 23fcc38:	6800      	ldr	r0, [r0, #0]
 23fcc3a:	4b04      	ldr	r3, [pc, #16]	; (23fcc4c <system_ctrl_set_result+0x18>)
 23fcc3c:	4403      	add	r3, r0
 23fcc3e:	681b      	ldr	r3, [r3, #0]
 23fcc40:	f8d3 3094 	ldr.w	r3, [r3, #148]	; 0x94
 23fcc44:	9302      	str	r3, [sp, #8]
 23fcc46:	bd09      	pop	{r0, r3, pc}
 23fcc48:	1007ace8 	.word	0x1007ace8
 23fcc4c:	00000008 	.word	0x00000008

023fcc50 <malloc>:
#include "hal_platform.h"
#endif // defined(DYNALIB_EXPORT) || defined(DYNALIB_IMPORT)

DYNALIB_BEGIN(rt)

DYNALIB_FN(0, rt, malloc, void*(size_t))
 23fcc50:	b509      	push	{r0, r3, lr}
 23fcc52:	4804      	ldr	r0, [pc, #16]	; (23fcc64 <malloc+0x14>)
 23fcc54:	6800      	ldr	r0, [r0, #0]
 23fcc56:	4b04      	ldr	r3, [pc, #16]	; (23fcc68 <malloc+0x18>)
 23fcc58:	4403      	add	r3, r0
 23fcc5a:	681b      	ldr	r3, [r3, #0]
 23fcc5c:	681b      	ldr	r3, [r3, #0]
 23fcc5e:	9302      	str	r3, [sp, #8]
 23fcc60:	bd09      	pop	{r0, r3, pc}
 23fcc62:	0000      	.short	0x0000
 23fcc64:	1007ace8 	.word	0x1007ace8
 23fcc68:	00000004 	.word	0x00000004

023fcc6c <free>:
DYNALIB_FN(1, rt, free, void(void*))
 23fcc6c:	b509      	push	{r0, r3, lr}
 23fcc6e:	4804      	ldr	r0, [pc, #16]	; (23fcc80 <free+0x14>)
 23fcc70:	6800      	ldr	r0, [r0, #0]
 23fcc72:	4b04      	ldr	r3, [pc, #16]	; (23fcc84 <free+0x18>)
 23fcc74:	4403      	add	r3, r0
 23fcc76:	681b      	ldr	r3, [r3, #0]
 23fcc78:	685b      	ldr	r3, [r3, #4]
 23fcc7a:	9302      	str	r3, [sp, #8]
 23fcc7c:	bd09      	pop	{r0, r3, pc}
 23fcc7e:	0000      	.short	0x0000
 23fcc80:	1007ace8 	.word	0x1007ace8
 23fcc84:	00000004 	.word	0x00000004

023fcc88 <realloc>:
DYNALIB_FN(2, rt, realloc, void*(void*, size_t))
 23fcc88:	b509      	push	{r0, r3, lr}
 23fcc8a:	4804      	ldr	r0, [pc, #16]	; (23fcc9c <realloc+0x14>)
 23fcc8c:	6800      	ldr	r0, [r0, #0]
 23fcc8e:	4b04      	ldr	r3, [pc, #16]	; (23fcca0 <realloc+0x18>)
 23fcc90:	4403      	add	r3, r0
 23fcc92:	681b      	ldr	r3, [r3, #0]
 23fcc94:	689b      	ldr	r3, [r3, #8]
 23fcc96:	9302      	str	r3, [sp, #8]
 23fcc98:	bd09      	pop	{r0, r3, pc}
 23fcc9a:	0000      	.short	0x0000
 23fcc9c:	1007ace8 	.word	0x1007ace8
 23fcca0:	00000004 	.word	0x00000004

023fcca4 <_malloc_r>:
DYNALIB_FN(7, rt, snprintf, int(char*, size_t, const char*, ...))
DYNALIB_FN(8, rt, sniprintf, int(char*, size_t, const char*, ...))
DYNALIB_FN(9, rt, vsnprintf, int(char*, size_t, const char*, va_list))
DYNALIB_FN(10, rt, vsniprintf, int(char*, size_t, const char*, va_list))
DYNALIB_FN(11, rt, abort, void(void))
DYNALIB_FN(12, rt, _malloc_r, void*(struct _reent*, size_t))
 23fcca4:	b509      	push	{r0, r3, lr}
 23fcca6:	4804      	ldr	r0, [pc, #16]	; (23fccb8 <_malloc_r+0x14>)
 23fcca8:	6800      	ldr	r0, [r0, #0]
 23fccaa:	4b04      	ldr	r3, [pc, #16]	; (23fccbc <_malloc_r+0x18>)
 23fccac:	4403      	add	r3, r0
 23fccae:	681b      	ldr	r3, [r3, #0]
 23fccb0:	6b1b      	ldr	r3, [r3, #48]	; 0x30
 23fccb2:	9302      	str	r3, [sp, #8]
 23fccb4:	bd09      	pop	{r0, r3, pc}
 23fccb6:	0000      	.short	0x0000
 23fccb8:	1007ace8 	.word	0x1007ace8
 23fccbc:	00000004 	.word	0x00000004

023fccc0 <__assert_func>:
DYNALIB_FN(13, rt, _free_r, void(struct _reent*, void*))
DYNALIB_FN(14, rt, _realloc_r, void*(struct _reent*, void*, size_t))
DYNALIB_FN(15, rt, __errno, int*())

#if defined(DYNALIB_EXPORT) || defined(DYNALIB_IMPORT)
DYNALIB_FN(16, rt, __assert_func, void(const char*, int, const char*, const char*))
 23fccc0:	b509      	push	{r0, r3, lr}
 23fccc2:	4804      	ldr	r0, [pc, #16]	; (23fccd4 <__assert_func+0x14>)
 23fccc4:	6800      	ldr	r0, [r0, #0]
 23fccc6:	4b04      	ldr	r3, [pc, #16]	; (23fccd8 <__assert_func+0x18>)
 23fccc8:	4403      	add	r3, r0
 23fccca:	681b      	ldr	r3, [r3, #0]
 23fcccc:	6c1b      	ldr	r3, [r3, #64]	; 0x40
 23fccce:	9302      	str	r3, [sp, #8]
 23fccd0:	bd09      	pop	{r0, r3, pc}
 23fccd2:	0000      	.short	0x0000
 23fccd4:	1007ace8 	.word	0x1007ace8
 23fccd8:	00000004 	.word	0x00000004

023fccdc <newlib_impure_ptr_callback>:
DYNALIB_FN(17, rt, newlib_impure_ptr_callback, void(void (*)(struct _reent*, size_t, uint32_t, void*), void*))
 23fccdc:	b509      	push	{r0, r3, lr}
 23fccde:	4804      	ldr	r0, [pc, #16]	; (23fccf0 <newlib_impure_ptr_callback+0x14>)
 23fcce0:	6800      	ldr	r0, [r0, #0]
 23fcce2:	4b04      	ldr	r3, [pc, #16]	; (23fccf4 <newlib_impure_ptr_callback+0x18>)
 23fcce4:	4403      	add	r3, r0
 23fcce6:	681b      	ldr	r3, [r3, #0]
 23fcce8:	6c5b      	ldr	r3, [r3, #68]	; 0x44
 23fccea:	9302      	str	r3, [sp, #8]
 23fccec:	bd09      	pop	{r0, r3, pc}
 23fccee:	0000      	.short	0x0000
 23fccf0:	1007ace8 	.word	0x1007ace8
 23fccf4:	00000004 	.word	0x00000004

023fccf8 <__cxa_guard_acquire>:

DYNALIB_FN(18, rt, strftime, size_t(char* __restrict, size_t, const char* __restrict, const struct tm* __restrict))
DYNALIB_FN(19, rt, localtime_r, struct tm*(const time_t* __restrict, struct tm* __restrict))
DYNALIB_FN(20, rt, gmtime_r, struct tm*(const time_t* __restrict, struct tm* __restrict))
DYNALIB_FN(21, rt, mktime, time_t(struct tm*))
DYNALIB_FN(22, rt, __cxa_guard_acquire, int(__guard*))
 23fccf8:	b509      	push	{r0, r3, lr}
 23fccfa:	4804      	ldr	r0, [pc, #16]	; (23fcd0c <__cxa_guard_acquire+0x14>)
 23fccfc:	6800      	ldr	r0, [r0, #0]
 23fccfe:	4b04      	ldr	r3, [pc, #16]	; (23fcd10 <__cxa_guard_acquire+0x18>)
 23fcd00:	4403      	add	r3, r0
 23fcd02:	681b      	ldr	r3, [r3, #0]
 23fcd04:	6d9b      	ldr	r3, [r3, #88]	; 0x58
 23fcd06:	9302      	str	r3, [sp, #8]
 23fcd08:	bd09      	pop	{r0, r3, pc}
 23fcd0a:	0000      	.short	0x0000
 23fcd0c:	1007ace8 	.word	0x1007ace8
 23fcd10:	00000004 	.word	0x00000004

023fcd14 <__cxa_guard_release>:
DYNALIB_FN(23, rt, __cxa_guard_release, void(__guard*))
 23fcd14:	b509      	push	{r0, r3, lr}
 23fcd16:	4804      	ldr	r0, [pc, #16]	; (23fcd28 <__cxa_guard_release+0x14>)
 23fcd18:	6800      	ldr	r0, [r0, #0]
 23fcd1a:	4b04      	ldr	r3, [pc, #16]	; (23fcd2c <__cxa_guard_release+0x18>)
 23fcd1c:	4403      	add	r3, r0
 23fcd1e:	681b      	ldr	r3, [r3, #0]
 23fcd20:	6ddb      	ldr	r3, [r3, #92]	; 0x5c
 23fcd22:	9302      	str	r3, [sp, #8]
 23fcd24:	bd09      	pop	{r0, r3, pc}
 23fcd26:	0000      	.short	0x0000
 23fcd28:	1007ace8 	.word	0x1007ace8
 23fcd2c:	00000004 	.word	0x00000004

023fcd30 <_GLOBAL__sub_I__ZN8particle3ble13WiringBleLock6mutex_E>:
    /**
     * Creates a shared mutex.
     */
    RecursiveMutex(os_mutex_recursive_t handle) : handle_(handle) {}

    RecursiveMutex() : handle_(nullptr)
 23fcd30:	2300      	movs	r3, #0
 23fcd32:	4802      	ldr	r0, [pc, #8]	; (23fcd3c <_GLOBAL__sub_I__ZN8particle3ble13WiringBleLock6mutex_E+0xc>)
 23fcd34:	6003      	str	r3, [r0, #0]
    {
        os_mutex_recursive_create(&handle_);
 23fcd36:	f7ff bbe1 	b.w	23fc4fc <os_mutex_recursive_create>
 23fcd3a:	bf00      	nop
 23fcd3c:	1007af10 	.word	0x1007af10

023fcd40 <_GLOBAL__sub_I__ZN8particle10CloudEvent15s_subscriptionsE>:
// spark::Vector
template<typename T, typename AllocatorT>
inline spark::Vector<T, AllocatorT>::Vector() :
        data_(nullptr),
        size_(0),
        capacity_(0) {
 23fcd40:	2200      	movs	r2, #0
 23fcd42:	4b02      	ldr	r3, [pc, #8]	; (23fcd4c <_GLOBAL__sub_I__ZN8particle10CloudEvent15s_subscriptionsE+0xc>)
 23fcd44:	e9c3 2200 	strd	r2, r2, [r3]
 23fcd48:	609a      	str	r2, [r3, #8]
        // Keep the reference around until the application callback is called
        d.unwrap();
    }
}

} // namespace particle
 23fcd4a:	4770      	bx	lr
 23fcd4c:	1007af14 	.word	0x1007af14

023fcd50 <_ZN10CloudClass22call_raw_user_functionEPvPKcS0_>:
    }
    return CloudDisconnectOptions(options->flags, options->timeout, options->graceful, clearSession, options->reconnect_immediately);
}

int CloudClass::call_raw_user_function(void* data, const char* param, void* reserved)
{
 23fcd50:	b510      	push	{r4, lr}
 23fcd52:	b088      	sub	sp, #32
 23fcd54:	4604      	mov	r4, r0
    user_function_int_str_t* fn = (user_function_int_str_t*)(data);
    String p(param);
 23fcd56:	4668      	mov	r0, sp
 23fcd58:	f000 fb66 	bl	23fd428 <_ZN6StringC1EPK19__FlashStringHelper>
    return (*fn)(p);
 23fcd5c:	4669      	mov	r1, sp
 23fcd5e:	a804      	add	r0, sp, #16
 23fcd60:	f000 fb85 	bl	23fd46e <_ZN6StringC1ERKS_>
 23fcd64:	a804      	add	r0, sp, #16
 23fcd66:	47a0      	blx	r4
 23fcd68:	4604      	mov	r4, r0
 23fcd6a:	a804      	add	r0, sp, #16
 23fcd6c:	f000 fb11 	bl	23fd392 <_ZN6StringD1Ev>
    String p(param);
 23fcd70:	4668      	mov	r0, sp
 23fcd72:	f000 fb0e 	bl	23fd392 <_ZN6StringD1Ev>
}
 23fcd76:	4620      	mov	r0, r4
 23fcd78:	b008      	add	sp, #32
 23fcd7a:	bd10      	pop	{r4, pc}

023fcd7c <_ZN10CloudClass17register_functionEPFiPvPKcS0_ES0_S2_>:
    wiring_event_handler_t* fn = (wiring_event_handler_t*)(handler_data);
    (*fn)(event_name, data);
}

bool CloudClass::register_function(cloud_function_t fn, void* data, const char* funcKey)
{
 23fcd7c:	b51f      	push	{r0, r1, r2, r3, r4, lr}
    const char *funcKey;
    cloud_function_t fn;
    void* data;

     cloud_function_descriptor() {
         memset(this, 0, sizeof(*this));
 23fcd7e:	2300      	movs	r3, #0
         size = sizeof(*this);
 23fcd80:	2410      	movs	r4, #16
    cloud_function_descriptor desc = {};
    desc.size = sizeof(desc);
    desc.fn = fn;
    desc.data = (void*)data;
 23fcd82:	e9cd 0102 	strd	r0, r1, [sp, #8]
    desc.funcKey = funcKey;
 23fcd86:	9201      	str	r2, [sp, #4]
    return spark_function(NULL, (user_function_int_str_t*)&desc, NULL);
 23fcd88:	4669      	mov	r1, sp
 23fcd8a:	461a      	mov	r2, r3
 23fcd8c:	4618      	mov	r0, r3
         memset(this, 0, sizeof(*this));
 23fcd8e:	f8ad 3002 	strh.w	r3, [sp, #2]
         size = sizeof(*this);
 23fcd92:	f8ad 4000 	strh.w	r4, [sp]
 23fcd96:	f7ff fe43 	bl	23fca20 <spark_function>
}
 23fcd9a:	b004      	add	sp, #16
 23fcd9c:	bd10      	pop	{r4, pc}

023fcd9e <_ZN5spark13EthernetClass9listeningEv>:
    uint16_t getListenTimeout(void) {
        return network_get_listen_timeout(*this, 0, NULL);
    }

    bool listening(void) {
        return network_listening(*this, 0, NULL);
 23fcd9e:	2200      	movs	r2, #0
 23fcda0:	6840      	ldr	r0, [r0, #4]
 23fcda2:	4611      	mov	r1, r2
 23fcda4:	f7ff beba 	b.w	23fcb1c <network_listening>

023fcda8 <_ZN5spark13EthernetClass16getListenTimeoutEv>:
        return network_get_listen_timeout(*this, 0, NULL);
 23fcda8:	2200      	movs	r2, #0
 23fcdaa:	6840      	ldr	r0, [r0, #4]
 23fcdac:	4611      	mov	r1, r2
 23fcdae:	f7ff bed1 	b.w	23fcb54 <network_get_listen_timeout>

023fcdb2 <_ZN5spark13EthernetClass16setListenTimeoutEt>:
        network_set_listen_timeout(*this, timeout, NULL);
 23fcdb2:	2200      	movs	r2, #0
 23fcdb4:	6840      	ldr	r0, [r0, #4]
 23fcdb6:	f7ff bebf 	b.w	23fcb38 <network_set_listen_timeout>

023fcdba <_ZN5spark13EthernetClass6listenEb>:
        network_listen(*this, begin ? 0 : 1, NULL);
 23fcdba:	2200      	movs	r2, #0
 23fcdbc:	6840      	ldr	r0, [r0, #4]
 23fcdbe:	f081 0101 	eor.w	r1, r1, #1
 23fcdc2:	f7ff be9d 	b.w	23fcb00 <network_listen>

023fcdc6 <_ZN5spark13EthernetClass3offEv>:
        network_off(*this, 0, 0, NULL);
 23fcdc6:	2300      	movs	r3, #0
 23fcdc8:	6840      	ldr	r0, [r0, #4]
 23fcdca:	461a      	mov	r2, r3
 23fcdcc:	4619      	mov	r1, r3
 23fcdce:	f7ff be89 	b.w	23fcae4 <network_off>

023fcdd2 <_ZN5spark13EthernetClass2onEv>:
        network_on(*this, 0, 0, NULL);
 23fcdd2:	2300      	movs	r3, #0
 23fcdd4:	6840      	ldr	r0, [r0, #4]
 23fcdd6:	461a      	mov	r2, r3
 23fcdd8:	4619      	mov	r1, r3
 23fcdda:	f7ff be75 	b.w	23fcac8 <network_on>

023fcdde <_ZN5spark13EthernetClass5readyEv>:
    }

    bool ready() {
        return network_ready(*this, 0,  NULL);
 23fcdde:	2200      	movs	r2, #0
 23fcde0:	6840      	ldr	r0, [r0, #4]
 23fcde2:	4611      	mov	r1, r2
 23fcde4:	f7ff be62 	b.w	23fcaac <network_ready>

023fcde8 <_ZN5spark13EthernetClass10connectingEv>:
        return network_connecting(*this, 0, NULL);
 23fcde8:	2200      	movs	r2, #0
 23fcdea:	6840      	ldr	r0, [r0, #4]
 23fcdec:	4611      	mov	r1, r2
 23fcdee:	f7ff be41 	b.w	23fca74 <network_connecting>

023fcdf2 <_ZN5spark13EthernetClass10disconnectEv>:
        network_disconnect(*this, NETWORK_DISCONNECT_REASON_USER, NULL);
 23fcdf2:	2200      	movs	r2, #0
 23fcdf4:	2102      	movs	r1, #2
 23fcdf6:	6840      	ldr	r0, [r0, #4]
 23fcdf8:	f7ff be4a 	b.w	23fca90 <network_disconnect>

023fcdfc <_ZN5spark13EthernetClass7connectEj>:
        network_connect(*this, flags, 0, NULL);
 23fcdfc:	2300      	movs	r3, #0
 23fcdfe:	6840      	ldr	r0, [r0, #4]
 23fce00:	461a      	mov	r2, r3
 23fce02:	f7ff be29 	b.w	23fca58 <network_connect>
	...

023fce08 <_GLOBAL__sub_I__ZN5spark8EthernetE>:
    static NetworkClass& from(network_interface_t nif);

    virtual IPAddress resolve(const char* name, bool flushCache = false);

    explicit NetworkClass(network_interface_t iface)
            : iface_(iface) {
 23fce08:	2203      	movs	r2, #3
 23fce0a:	4b02      	ldr	r3, [pc, #8]	; (23fce14 <_GLOBAL__sub_I__ZN5spark8EthernetE+0xc>)
 23fce0c:	605a      	str	r2, [r3, #4]
            NetworkClass(NETWORK_INTERFACE_ETHERNET) {
 23fce0e:	4a02      	ldr	r2, [pc, #8]	; (23fce18 <_GLOBAL__sub_I__ZN5spark8EthernetE+0x10>)
 23fce10:	601a      	str	r2, [r3, #0]

namespace spark {

EthernetClass Ethernet;

} // spark
 23fce12:	4770      	bx	lr
 23fce14:	1007af20 	.word	0x1007af20
 23fce18:	023ffa88 	.word	0x023ffa88

023fce1c <_ZN7TwoWireD1Ev>:
private:
  hal_i2c_interface_t _i2c;

public:
  TwoWire(hal_i2c_interface_t i2c, const hal_i2c_config_t& config);
  virtual ~TwoWire() {};
 23fce1c:	4770      	bx	lr

023fce1e <_ZN7TwoWire5writeEPKhj>:

// must be called in:
// slave tx event callback
// or after beginTransmission(address)
size_t TwoWire::write(const uint8_t *data, size_t quantity)
{
 23fce1e:	b5f8      	push	{r3, r4, r5, r6, r7, lr}
 23fce20:	4606      	mov	r6, r0
 23fce22:	4615      	mov	r5, r2
 23fce24:	460c      	mov	r4, r1
 23fce26:	188f      	adds	r7, r1, r2
  // in master/slave transmitter mode
  for(size_t i = 0; i < quantity; ++i)
 23fce28:	42bc      	cmp	r4, r7
 23fce2a:	d006      	beq.n	23fce3a <_ZN7TwoWire5writeEPKhj+0x1c>
  {
    write(data[i]);
 23fce2c:	6833      	ldr	r3, [r6, #0]
 23fce2e:	4630      	mov	r0, r6
 23fce30:	689b      	ldr	r3, [r3, #8]
 23fce32:	f814 1b01 	ldrb.w	r1, [r4], #1
 23fce36:	4798      	blx	r3
  for(size_t i = 0; i < quantity; ++i)
 23fce38:	e7f6      	b.n	23fce28 <_ZN7TwoWire5writeEPKhj+0xa>
  }

  return quantity;
}
 23fce3a:	4628      	mov	r0, r5
 23fce3c:	bdf8      	pop	{r3, r4, r5, r6, r7, pc}

023fce3e <_ZN7TwoWire5writeEh>:
  return hal_i2c_write(_i2c, data, NULL);
 23fce3e:	2200      	movs	r2, #0
 23fce40:	7c00      	ldrb	r0, [r0, #16]
 23fce42:	f7ff bbe7 	b.w	23fc614 <hal_i2c_write>

023fce46 <_ZN7TwoWire9availableEv>:
// must be called in:
// slave rx event callback
// or after requestFrom(address, numBytes)
int TwoWire::available(void)
{
  return hal_i2c_available(_i2c, NULL);
 23fce46:	2100      	movs	r1, #0
 23fce48:	7c00      	ldrb	r0, [r0, #16]
 23fce4a:	f7ff bbf1 	b.w	23fc630 <hal_i2c_available>

023fce4e <_ZN7TwoWire4readEv>:
// must be called in:
// slave rx event callback
// or after requestFrom(address, numBytes)
int TwoWire::read(void)
{
  return hal_i2c_read(_i2c, NULL);
 23fce4e:	2100      	movs	r1, #0
 23fce50:	7c00      	ldrb	r0, [r0, #16]
 23fce52:	f7ff bbfb 	b.w	23fc64c <hal_i2c_read>

023fce56 <_ZN7TwoWire4peekEv>:
// must be called in:
// slave rx event callback
// or after requestFrom(address, numBytes)
int TwoWire::peek(void)
{
  return hal_i2c_peek(_i2c, NULL);
 23fce56:	2100      	movs	r1, #0
 23fce58:	7c00      	ldrb	r0, [r0, #16]
 23fce5a:	f7ff bc05 	b.w	23fc668 <hal_i2c_peek>

023fce5e <_ZN7TwoWire5flushEv>:
}

void TwoWire::flush(void)
{
  hal_i2c_flush(_i2c, NULL);
 23fce5e:	2100      	movs	r1, #0
 23fce60:	7c00      	ldrb	r0, [r0, #16]
 23fce62:	f7ff bc0f 	b.w	23fc684 <hal_i2c_flush>

023fce66 <_ZN7TwoWireD0Ev>:
 23fce66:	b510      	push	{r4, lr}
 23fce68:	4604      	mov	r4, r0
 23fce6a:	2114      	movs	r1, #20
 23fce6c:	f7fe ff5b 	bl	23fbd26 <_ZdlPvj>
 23fce70:	4620      	mov	r0, r4
 23fce72:	bd10      	pop	{r4, pc}

023fce74 <_ZN7TwoWireC1E19hal_i2c_interface_tRK16hal_i2c_config_t>:
TwoWire::TwoWire(hal_i2c_interface_t i2c, const hal_i2c_config_t& conf)
 23fce74:	b538      	push	{r3, r4, r5, lr}
 23fce76:	4604      	mov	r4, r0
 23fce78:	4615      	mov	r5, r2
    virtual int available() = 0;
    virtual int read() = 0;
    virtual int peek() = 0;
    virtual void flush() = 0;

    Stream() {_timeout=1000;}
 23fce7a:	f44f 737a 	mov.w	r3, #1000	; 0x3e8
 23fce7e:	2200      	movs	r2, #0
 23fce80:	e9c4 2301 	strd	r2, r3, [r4, #4]
 23fce84:	4b09      	ldr	r3, [pc, #36]	; (23fceac <_ZN7TwoWireC1E19hal_i2c_interface_tRK16hal_i2c_config_t+0x38>)
 23fce86:	4608      	mov	r0, r1
  _i2c = i2c;
 23fce88:	7421      	strb	r1, [r4, #16]
TwoWire::TwoWire(hal_i2c_interface_t i2c, const hal_i2c_config_t& conf)
 23fce8a:	6023      	str	r3, [r4, #0]
  int result = hal_i2c_init(_i2c, &conf);
 23fce8c:	4629      	mov	r1, r5
 23fce8e:	f7ff fc15 	bl	23fc6bc <hal_i2c_init>
  if (result == SYSTEM_ERROR_NOT_ENOUGH_DATA && 
 23fce92:	30bf      	adds	r0, #191	; 0xbf
 23fce94:	d108      	bne.n	23fcea8 <_ZN7TwoWireC1E19hal_i2c_interface_tRK16hal_i2c_config_t+0x34>
      (conf.flags & HAL_I2C_CONFIG_FLAG_FREEABLE)) {
 23fce96:	696b      	ldr	r3, [r5, #20]
  if (result == SYSTEM_ERROR_NOT_ENOUGH_DATA && 
 23fce98:	07db      	lsls	r3, r3, #31
 23fce9a:	d505      	bpl.n	23fcea8 <_ZN7TwoWireC1E19hal_i2c_interface_tRK16hal_i2c_config_t+0x34>
    free(conf.rx_buffer);
 23fce9c:	6868      	ldr	r0, [r5, #4]
 23fce9e:	f7ff fee5 	bl	23fcc6c <free>
    free(conf.tx_buffer);
 23fcea2:	68e8      	ldr	r0, [r5, #12]
 23fcea4:	f7ff fee2 	bl	23fcc6c <free>
}
 23fcea8:	4620      	mov	r0, r4
 23fceaa:	bd38      	pop	{r3, r4, r5, pc}
 23fceac:	023ffacc 	.word	0x023ffacc

023fceb0 <_GLOBAL__sub_I__ZN7TwoWireC2E19hal_i2c_interface_tRK16hal_i2c_config_t>:
        buffer_(nullptr) {
 23fceb0:	21ff      	movs	r1, #255	; 0xff
 23fceb2:	2200      	movs	r2, #0
      : address_{address},
 23fceb4:	4b04      	ldr	r3, [pc, #16]	; (23fcec8 <_GLOBAL__sub_I__ZN7TwoWireC2E19hal_i2c_interface_tRK16hal_i2c_config_t+0x18>)
        buffer_(nullptr) {
 23fceb6:	2001      	movs	r0, #1
 23fceb8:	e9c3 1200 	strd	r1, r2, [r3]
 23fcebc:	2164      	movs	r1, #100	; 0x64
 23fcebe:	611a      	str	r2, [r3, #16]
 23fcec0:	e9c3 0102 	strd	r0, r1, [r3, #8]

namespace particle {
namespace detail {
const WireTransmission WIRE_INVALID_TRANSMISSION(0xff);
} // detail
} // particle
 23fcec4:	4770      	bx	lr
 23fcec6:	bf00      	nop
 23fcec8:	1007af28 	.word	0x1007af28

023fcecc <_ZN9IPAddressD1Ev>:
    IPAddress(uint32_t address);
    // 4 bytes defining the IP address in network order
    IPAddress(const uint8_t* address);
    IPAddress(const HAL_IPAddress& address);

    virtual ~IPAddress() {}
 23fcecc:	4770      	bx	lr

023fcece <_ZN9IPAddressD0Ev>:
 23fcece:	b510      	push	{r4, lr}
 23fced0:	4604      	mov	r4, r0
 23fced2:	2118      	movs	r1, #24
 23fced4:	f7fe ff27 	bl	23fbd26 <_ZdlPvj>
 23fced8:	4620      	mov	r0, r4
 23fceda:	bd10      	pop	{r4, pc}

023fcedc <_ZNK9IPAddress7printToER5Print>:
#endif // Wiring_IPv6
	return address.ipv4==that.address.ipv4;
}

size_t IPAddress::printTo(Print& p) const
{
 23fcedc:	b5f0      	push	{r4, r5, r6, r7, lr}
#if Wiring_IPv6
#if HAL_USE_INET_HAL_POSIX
	if (address.v==6) {
 23fcede:	7d03      	ldrb	r3, [r0, #20]
{
 23fcee0:	460e      	mov	r6, r1
	if (address.v==6) {
 23fcee2:	2b06      	cmp	r3, #6
 23fcee4:	f04f 0400 	mov.w	r4, #0
{
 23fcee8:	b08d      	sub	sp, #52	; 0x34
		char buf[INET6_ADDRSTRLEN+1];
		buf[0] = 0;
		inet_inet_ntop(AF_INET6, address.ipv6, buf, sizeof(buf));
 23fceea:	f100 0704 	add.w	r7, r0, #4
	if (address.v==6) {
 23fceee:	d012      	beq.n	23fcf16 <_ZNK9IPAddress7printToER5Print+0x3a>
 23fcef0:	f100 0508 	add.w	r5, r0, #8
            val = n;
        }
#if __GNUC__ >= 9
#pragma GCC diagnostic pop
#endif // __GNUC__ >= 9
        return printNumber(val, base) + t;
 23fcef4:	f815 1d01 	ldrb.w	r1, [r5, #-1]!
 23fcef8:	220a      	movs	r2, #10
 23fcefa:	4630      	mov	r0, r6
 23fcefc:	f000 f989 	bl	23fd212 <_ZN5Print11printNumberEmh>
#else
#pragma message "HAL_USE_INET_HAL_POSIX is required for IPv6 support in IPAddress::printTo()"
#endif // HAL_USE_INET_HAL_POSIX
#endif // Wiring_IPv6
    size_t n = 0;
    for (int i = 0; i < 4; i++)
 23fcf00:	42af      	cmp	r7, r5
    {
        if (n)
            n += p.print('.');
        n += p.print((*this)[i], DEC);
 23fcf02:	4404      	add	r4, r0
    for (int i = 0; i < 4; i++)
 23fcf04:	d019      	beq.n	23fcf3a <_ZNK9IPAddress7printToER5Print+0x5e>
        if (n)
 23fcf06:	2c00      	cmp	r4, #0
 23fcf08:	d0f4      	beq.n	23fcef4 <_ZNK9IPAddress7printToER5Print+0x18>
            n += p.print('.');
 23fcf0a:	212e      	movs	r1, #46	; 0x2e
 23fcf0c:	4630      	mov	r0, r6
 23fcf0e:	f000 f967 	bl	23fd1e0 <_ZN5Print5printEc>
 23fcf12:	4404      	add	r4, r0
 23fcf14:	e7ee      	b.n	23fcef4 <_ZNK9IPAddress7printToER5Print+0x18>
		inet_inet_ntop(AF_INET6, address.ipv6, buf, sizeof(buf));
 23fcf16:	232f      	movs	r3, #47	; 0x2f
 23fcf18:	466a      	mov	r2, sp
 23fcf1a:	4639      	mov	r1, r7
 23fcf1c:	200a      	movs	r0, #10
		buf[0] = 0;
 23fcf1e:	f88d 4000 	strb.w	r4, [sp]
		inet_inet_ntop(AF_INET6, address.ipv6, buf, sizeof(buf));
 23fcf22:	f7ff fbe7 	bl	23fc6f4 <inet_inet_ntop>
      return write((const uint8_t *)str, strlen(str));
 23fcf26:	4668      	mov	r0, sp
 23fcf28:	f7fe febe 	bl	23fbca8 <strlen>
 23fcf2c:	6833      	ldr	r3, [r6, #0]
 23fcf2e:	4602      	mov	r2, r0
 23fcf30:	4669      	mov	r1, sp
 23fcf32:	4630      	mov	r0, r6
 23fcf34:	68db      	ldr	r3, [r3, #12]
 23fcf36:	4798      	blx	r3
 23fcf38:	4604      	mov	r4, r0
    }
    return n;
}
 23fcf3a:	4620      	mov	r0, r4
 23fcf3c:	b00d      	add	sp, #52	; 0x34
 23fcf3e:	bdf0      	pop	{r4, r5, r6, r7, pc}

023fcf40 <_ZN9IPAddressC1Ev>:
IPAddress::IPAddress()
 23fcf40:	b510      	push	{r4, lr}
 23fcf42:	4604      	mov	r4, r0
 23fcf44:	4b04      	ldr	r3, [pc, #16]	; (23fcf58 <_ZN9IPAddressC1Ev+0x18>)
        return address;
    }

    virtual size_t printTo(Print& p) const;

    void clear() { memset(&address, 0, sizeof (address)); }
 23fcf46:	2211      	movs	r2, #17
 23fcf48:	2100      	movs	r1, #0
 23fcf4a:	f840 3b04 	str.w	r3, [r0], #4
 23fcf4e:	f000 fe41 	bl	23fdbd4 <memset>
}
 23fcf52:	4620      	mov	r0, r4
 23fcf54:	bd10      	pop	{r4, pc}
 23fcf56:	bf00      	nop
 23fcf58:	023ffaf8 	.word	0x023ffaf8

023fcf5c <_ZN9IPAddressC1ERK16_HAL_IPAddress_t>:
IPAddress::IPAddress(const HAL_IPAddress& address)
 23fcf5c:	4603      	mov	r3, r0
 23fcf5e:	4a07      	ldr	r2, [pc, #28]	; (23fcf7c <_ZN9IPAddressC1ERK16_HAL_IPAddress_t+0x20>)
 23fcf60:	b510      	push	{r4, lr}
 23fcf62:	f843 2b04 	str.w	r2, [r3], #4
    memcpy(&this->address, &address, sizeof(address));
 23fcf66:	f101 0210 	add.w	r2, r1, #16
 23fcf6a:	f851 4b04 	ldr.w	r4, [r1], #4
 23fcf6e:	4291      	cmp	r1, r2
 23fcf70:	f843 4b04 	str.w	r4, [r3], #4
 23fcf74:	d1f9      	bne.n	23fcf6a <_ZN9IPAddressC1ERK16_HAL_IPAddress_t+0xe>
 23fcf76:	780a      	ldrb	r2, [r1, #0]
 23fcf78:	701a      	strb	r2, [r3, #0]
}
 23fcf7a:	bd10      	pop	{r4, pc}
 23fcf7c:	023ffaf8 	.word	0x023ffaf8

023fcf80 <_ZN9IPAddress8set_ipv4Ehhhh>:
{
 23fcf80:	b510      	push	{r4, lr}
    address.ipv4 = b0<<24 | b1 << 16 | b2 << 8 | b3;
 23fcf82:	f89d 4008 	ldrb.w	r4, [sp, #8]
 23fcf86:	ea44 2303 	orr.w	r3, r4, r3, lsl #8
 23fcf8a:	ea43 4202 	orr.w	r2, r3, r2, lsl #16
        address.v = version;
 23fcf8e:	2304      	movs	r3, #4
 23fcf90:	ea42 6101 	orr.w	r1, r2, r1, lsl #24
 23fcf94:	6041      	str	r1, [r0, #4]
 23fcf96:	7503      	strb	r3, [r0, #20]
}
 23fcf98:	bd10      	pop	{r4, pc}
	...

023fcf9c <_ZN9IPAddressC1EPKh>:
IPAddress::IPAddress(const uint8_t* addr)
 23fcf9c:	b507      	push	{r0, r1, r2, lr}
 23fcf9e:	4b06      	ldr	r3, [pc, #24]	; (23fcfb8 <_ZN9IPAddressC1EPKh+0x1c>)
 23fcfa0:	6003      	str	r3, [r0, #0]
    set_ipv4(addr[0], addr[1], addr[2], addr[3]);
 23fcfa2:	78cb      	ldrb	r3, [r1, #3]
 23fcfa4:	9300      	str	r3, [sp, #0]
 23fcfa6:	788b      	ldrb	r3, [r1, #2]
 23fcfa8:	784a      	ldrb	r2, [r1, #1]
 23fcfaa:	7809      	ldrb	r1, [r1, #0]
 23fcfac:	f7ff ffe8 	bl	23fcf80 <_ZN9IPAddress8set_ipv4Ehhhh>
}
 23fcfb0:	b003      	add	sp, #12
 23fcfb2:	f85d fb04 	ldr.w	pc, [sp], #4
 23fcfb6:	bf00      	nop
 23fcfb8:	023ffaf8 	.word	0x023ffaf8

023fcfbc <_GLOBAL__sub_I__ZN5spark3LogE>:
    // This handler doesn't support direct logging
}

// spark::Logger
inline spark::Logger::Logger(const char *name) :
        name_(name) {
 23fcfbc:	4b01      	ldr	r3, [pc, #4]	; (23fcfc4 <_GLOBAL__sub_I__ZN5spark3LogE+0x8>)
 23fcfbe:	4a02      	ldr	r2, [pc, #8]	; (23fcfc8 <_GLOBAL__sub_I__ZN5spark3LogE+0xc>)
 23fcfc0:	601a      	str	r2, [r3, #0]
#if Wiring_LogConfig

// spark::
void spark::logProcessControlRequest(ctrl_request* req) {
    JSONRequestHandler::process(req);
}
 23fcfc2:	4770      	bx	lr
 23fcfc4:	1007af3c 	.word	0x1007af3c
 23fcfc8:	023ffb04 	.word	0x023ffb04

023fcfcc <_ZN5spark12NetworkClass7connectEj>:
        return Network;
    }
}

void NetworkClass::connect(unsigned flags) {
    network_connect(*this, flags, 0, nullptr);
 23fcfcc:	2300      	movs	r3, #0
 23fcfce:	6840      	ldr	r0, [r0, #4]
 23fcfd0:	461a      	mov	r2, r3
 23fcfd2:	f7ff bd41 	b.w	23fca58 <network_connect>

023fcfd6 <_ZN5spark12NetworkClass10disconnectEv>:
}

void NetworkClass::disconnect() {
    network_disconnect(*this, NETWORK_DISCONNECT_REASON_USER, nullptr);
 23fcfd6:	2200      	movs	r2, #0
 23fcfd8:	2102      	movs	r1, #2
 23fcfda:	6840      	ldr	r0, [r0, #4]
 23fcfdc:	f7ff bd58 	b.w	23fca90 <network_disconnect>

023fcfe0 <_ZN5spark12NetworkClass10connectingEv>:
}

bool NetworkClass::connecting() {
    return network_connecting(*this, 0, nullptr);
 23fcfe0:	2200      	movs	r2, #0
 23fcfe2:	6840      	ldr	r0, [r0, #4]
 23fcfe4:	4611      	mov	r1, r2
 23fcfe6:	f7ff bd45 	b.w	23fca74 <network_connecting>

023fcfea <_ZN5spark12NetworkClass5readyEv>:
}

bool NetworkClass::ready() {
    return network_ready(*this, 0, nullptr);
 23fcfea:	2200      	movs	r2, #0
 23fcfec:	6840      	ldr	r0, [r0, #4]
 23fcfee:	4611      	mov	r1, r2
 23fcff0:	f7ff bd5c 	b.w	23fcaac <network_ready>

023fcff4 <_ZN5spark12NetworkClass2onEv>:
}

void NetworkClass::on() {
    network_on(*this, 0, 0, nullptr);
 23fcff4:	2300      	movs	r3, #0
 23fcff6:	6840      	ldr	r0, [r0, #4]
 23fcff8:	461a      	mov	r2, r3
 23fcffa:	4619      	mov	r1, r3
 23fcffc:	f7ff bd64 	b.w	23fcac8 <network_on>

023fd000 <_ZN5spark12NetworkClass3offEv>:
}

void NetworkClass::off() {
    network_off(*this, 0, 0, nullptr);
 23fd000:	2300      	movs	r3, #0
 23fd002:	6840      	ldr	r0, [r0, #4]
 23fd004:	461a      	mov	r2, r3
 23fd006:	4619      	mov	r1, r3
 23fd008:	f7ff bd6c 	b.w	23fcae4 <network_off>

023fd00c <_ZN5spark12NetworkClass4isOnEv>:
}

bool NetworkClass::isOn() {
    return network_is_on(*this, nullptr);
 23fd00c:	2100      	movs	r1, #0
 23fd00e:	6840      	ldr	r0, [r0, #4]
 23fd010:	f7ff bdae 	b.w	23fcb70 <network_is_on>

023fd014 <_ZN5spark12NetworkClass5isOffEv>:
}

bool NetworkClass::isOff() {
    return network_is_off(*this, nullptr);
 23fd014:	2100      	movs	r1, #0
 23fd016:	6840      	ldr	r0, [r0, #4]
 23fd018:	f7ff bdb8 	b.w	23fcb8c <network_is_off>

023fd01c <_ZN5spark12NetworkClass6listenEb>:
}

void NetworkClass::listen(bool begin) {
    network_listen(*this, begin ? 0 : 1, nullptr);
 23fd01c:	2200      	movs	r2, #0
 23fd01e:	6840      	ldr	r0, [r0, #4]
 23fd020:	f081 0101 	eor.w	r1, r1, #1
 23fd024:	f7ff bd6c 	b.w	23fcb00 <network_listen>

023fd028 <_ZN5spark12NetworkClass16setListenTimeoutEt>:
}

void NetworkClass::setListenTimeout(uint16_t timeout) {
    network_set_listen_timeout(*this, timeout, nullptr);
 23fd028:	2200      	movs	r2, #0
 23fd02a:	6840      	ldr	r0, [r0, #4]
 23fd02c:	f7ff bd84 	b.w	23fcb38 <network_set_listen_timeout>

023fd030 <_ZN5spark12NetworkClass16getListenTimeoutEv>:
}

uint16_t NetworkClass::getListenTimeout() {
    return network_get_listen_timeout(*this, 0, nullptr);
 23fd030:	2200      	movs	r2, #0
 23fd032:	6840      	ldr	r0, [r0, #4]
 23fd034:	4611      	mov	r1, r2
 23fd036:	f7ff bd8d 	b.w	23fcb54 <network_get_listen_timeout>

023fd03a <_ZN5spark12NetworkClass9listeningEv>:
}

bool NetworkClass::listening() {
    return network_listening(*this, 0, nullptr);
 23fd03a:	2200      	movs	r2, #0
 23fd03c:	6840      	ldr	r0, [r0, #4]
 23fd03e:	4611      	mov	r1, r2
 23fd040:	f7ff bd6c 	b.w	23fcb1c <network_listening>

023fd044 <_ZN5spark12NetworkClass11isPreferredEv>:
    network_handle_t network = network_prefer(*this, prefer, nullptr);
    return Network.from(network);
}

bool NetworkClass::isPreferred() {
    return network_is_preferred(*this, nullptr);
 23fd044:	2100      	movs	r1, #0
 23fd046:	6840      	ldr	r0, [r0, #4]
 23fd048:	f7ff bdbc 	b.w	23fcbc4 <network_is_preferred>

023fd04c <_ZN5spark12NetworkClass7resolveEPKcb>:
}

IPAddress NetworkClass::resolve(const char* name, bool flushCache) {
 23fd04c:	e92d 43f0 	stmdb	sp!, {r4, r5, r6, r7, r8, r9, lr}
    IPAddress addr;
#if HAL_USE_INET_HAL_POSIX
    struct addrinfo *ai = nullptr;
 23fd050:	2600      	movs	r6, #0
IPAddress NetworkClass::resolve(const char* name, bool flushCache) {
 23fd052:	4698      	mov	r8, r3
 23fd054:	b099      	sub	sp, #100	; 0x64
 23fd056:	460d      	mov	r5, r1
 23fd058:	4614      	mov	r4, r2
 23fd05a:	4607      	mov	r7, r0
    IPAddress addr;
 23fd05c:	f7ff ff70 	bl	23fcf40 <_ZN9IPAddressC1Ev>
    struct addrinfo hints = {};
 23fd060:	221c      	movs	r2, #28
 23fd062:	4631      	mov	r1, r6
 23fd064:	a811      	add	r0, sp, #68	; 0x44
    struct addrinfo *ai = nullptr;
 23fd066:	9603      	str	r6, [sp, #12]
    struct addrinfo hints = {};
 23fd068:	f000 fdb4 	bl	23fdbd4 <memset>
    hints.ai_flags = AI_ADDRCONFIG;
    if (flushCache) {
 23fd06c:	f1b8 0f00 	cmp.w	r8, #0
 23fd070:	d12c      	bne.n	23fd0cc <_ZN5spark12NetworkClass7resolveEPKcb+0x80>
    hints.ai_flags = AI_ADDRCONFIG;
 23fd072:	2340      	movs	r3, #64	; 0x40
        return iface_;
 23fd074:	6868      	ldr	r0, [r5, #4]
        hints.ai_flags |= AI_FLUSHCACHE;
 23fd076:	9310      	str	r3, [sp, #64]	; 0x40
    }
    hints.ai_family = AF_UNSPEC;
    if_t iface = nullptr;
 23fd078:	9604      	str	r6, [sp, #16]
    if ((network_interface_t)*this != NETWORK_INTERFACE_ALL) {
 23fd07a:	b118      	cbz	r0, 23fd084 <_ZN5spark12NetworkClass7resolveEPKcb+0x38>
        if_get_by_index((network_interface_t)*this, &iface);
 23fd07c:	a904      	add	r1, sp, #16
 23fd07e:	b2c0      	uxtb	r0, r0
 23fd080:	f7ff fb2a 	bl	23fc6d8 <if_get_by_index>
    }
    const int r = netdb_getaddrinfo_ex(name, nullptr, &hints, &ai, iface);
 23fd084:	9b04      	ldr	r3, [sp, #16]
 23fd086:	4620      	mov	r0, r4
 23fd088:	9300      	str	r3, [sp, #0]
 23fd08a:	2100      	movs	r1, #0
 23fd08c:	ab03      	add	r3, sp, #12
 23fd08e:	aa10      	add	r2, sp, #64	; 0x40
 23fd090:	f7ff fb4c 	bl	23fc72c <netdb_getaddrinfo_ex>
    if (!r) {
 23fd094:	4604      	mov	r4, r0
 23fd096:	2800      	cmp	r0, #0
 23fd098:	d14d      	bne.n	23fd136 <_ZN5spark12NetworkClass7resolveEPKcb+0xea>
        bool ok = false;
        // This is not really needed if AI_ADDRCONFIG is properly supported
        bool ipv4 = network_ready(*this, NETWORK_READY_TYPE_IPV4, nullptr);
 23fd09a:	4602      	mov	r2, r0
 23fd09c:	2101      	movs	r1, #1
 23fd09e:	6868      	ldr	r0, [r5, #4]
 23fd0a0:	f7ff fd04 	bl	23fcaac <network_ready>
        bool ipv6 = network_ready(*this, NETWORK_READY_TYPE_IPV6, nullptr);
 23fd0a4:	2102      	movs	r1, #2
        bool ipv4 = network_ready(*this, NETWORK_READY_TYPE_IPV4, nullptr);
 23fd0a6:	4680      	mov	r8, r0
        bool ipv6 = network_ready(*this, NETWORK_READY_TYPE_IPV6, nullptr);
 23fd0a8:	4622      	mov	r2, r4
 23fd0aa:	6868      	ldr	r0, [r5, #4]
 23fd0ac:	f7ff fcfe 	bl	23fcaac <network_ready>
        bool ok = false;
 23fd0b0:	4621      	mov	r1, r4
        bool ipv6 = network_ready(*this, NETWORK_READY_TYPE_IPV6, nullptr);
 23fd0b2:	4681      	mov	r9, r0
        for (auto cur = ai; cur != nullptr && !ok; cur = cur->ai_next) {
 23fd0b4:	9e03      	ldr	r6, [sp, #12]
 23fd0b6:	2e00      	cmp	r6, #0
 23fd0b8:	d03d      	beq.n	23fd136 <_ZN5spark12NetworkClass7resolveEPKcb+0xea>
 23fd0ba:	2900      	cmp	r1, #0
 23fd0bc:	d13b      	bne.n	23fd136 <_ZN5spark12NetworkClass7resolveEPKcb+0xea>
            // NOTE: using only the first entry that matches the current state of IPv4/IPv6 connectivity
            switch (cur->ai_family) {
 23fd0be:	6873      	ldr	r3, [r6, #4]
 23fd0c0:	2b02      	cmp	r3, #2
 23fd0c2:	d005      	beq.n	23fd0d0 <_ZN5spark12NetworkClass7resolveEPKcb+0x84>
 23fd0c4:	2b0a      	cmp	r3, #10
 23fd0c6:	d013      	beq.n	23fd0f0 <_ZN5spark12NetworkClass7resolveEPKcb+0xa4>
        for (auto cur = ai; cur != nullptr && !ok; cur = cur->ai_next) {
 23fd0c8:	69f6      	ldr	r6, [r6, #28]
 23fd0ca:	e7f4      	b.n	23fd0b6 <_ZN5spark12NetworkClass7resolveEPKcb+0x6a>
        hints.ai_flags |= AI_FLUSHCACHE;
 23fd0cc:	4b1d      	ldr	r3, [pc, #116]	; (23fd144 <_ZN5spark12NetworkClass7resolveEPKcb+0xf8>)
 23fd0ce:	e7d1      	b.n	23fd074 <_ZN5spark12NetworkClass7resolveEPKcb+0x28>
                case AF_INET: {
                    if (!ipv4) {
 23fd0d0:	f1b8 0f00 	cmp.w	r8, #0
 23fd0d4:	d0f8      	beq.n	23fd0c8 <_ZN5spark12NetworkClass7resolveEPKcb+0x7c>
                        continue;
                    }
                    // NOTE: HAL_IPAddress is little-endian
                    auto in = (struct sockaddr_in*)cur->ai_addr;
                    addr = (const uint8_t*)(&in->sin_addr.s_addr);
 23fd0d6:	6971      	ldr	r1, [r6, #20]
        return *this = IPAddress(address);
 23fd0d8:	a80a      	add	r0, sp, #40	; 0x28
 23fd0da:	3104      	adds	r1, #4
class IPAddress : public Printable {
 23fd0dc:	1d3c      	adds	r4, r7, #4
 23fd0de:	ad0b      	add	r5, sp, #44	; 0x2c
        return *this = IPAddress(address);
 23fd0e0:	f7ff ff5c 	bl	23fcf9c <_ZN9IPAddressC1EPKh>
class IPAddress : public Printable {
 23fd0e4:	cd0f      	ldmia	r5!, {r0, r1, r2, r3}
 23fd0e6:	c40f      	stmia	r4!, {r0, r1, r2, r3}
 23fd0e8:	682b      	ldr	r3, [r5, #0]
                    ok = true;
 23fd0ea:	4641      	mov	r1, r8
 23fd0ec:	7023      	strb	r3, [r4, #0]
        return *this = IPAddress(address);
 23fd0ee:	e7eb      	b.n	23fd0c8 <_ZN5spark12NetworkClass7resolveEPKcb+0x7c>
                    break;
                }
                case AF_INET6: {
                    if (!ipv6) {
 23fd0f0:	f1b9 0f00 	cmp.w	r9, #0
 23fd0f4:	d0e8      	beq.n	23fd0c8 <_ZN5spark12NetworkClass7resolveEPKcb+0x7c>
                        continue;
                    }
                    auto in6 = (struct sockaddr_in6*)cur->ai_addr;
                    HAL_IPAddress a = {};
 23fd0f6:	2210      	movs	r2, #16
 23fd0f8:	a805      	add	r0, sp, #20
                    auto in6 = (struct sockaddr_in6*)cur->ai_addr;
 23fd0fa:	6974      	ldr	r4, [r6, #20]
                    HAL_IPAddress a = {};
 23fd0fc:	f000 fd6a 	bl	23fdbd4 <memset>
                    a.v = 6;
 23fd100:	2306      	movs	r3, #6
                    memcpy(a.ipv6, in6->sin6_addr.s6_addr, sizeof(a.ipv6));
 23fd102:	ad05      	add	r5, sp, #20
                    a.v = 6;
 23fd104:	f88d 3024 	strb.w	r3, [sp, #36]	; 0x24
                    memcpy(a.ipv6, in6->sin6_addr.s6_addr, sizeof(a.ipv6));
 23fd108:	f104 0308 	add.w	r3, r4, #8
 23fd10c:	3418      	adds	r4, #24
 23fd10e:	462a      	mov	r2, r5
 23fd110:	6818      	ldr	r0, [r3, #0]
 23fd112:	6859      	ldr	r1, [r3, #4]
 23fd114:	3308      	adds	r3, #8
 23fd116:	c203      	stmia	r2!, {r0, r1}
 23fd118:	42a3      	cmp	r3, r4
 23fd11a:	4615      	mov	r5, r2
 23fd11c:	d1f7      	bne.n	23fd10e <_ZN5spark12NetworkClass7resolveEPKcb+0xc2>
                    addr = IPAddress(a);
 23fd11e:	a905      	add	r1, sp, #20
 23fd120:	a80a      	add	r0, sp, #40	; 0x28
class IPAddress : public Printable {
 23fd122:	1d3c      	adds	r4, r7, #4
 23fd124:	ad0b      	add	r5, sp, #44	; 0x2c
 23fd126:	f7ff ff19 	bl	23fcf5c <_ZN9IPAddressC1ERK16_HAL_IPAddress_t>
 23fd12a:	cd0f      	ldmia	r5!, {r0, r1, r2, r3}
 23fd12c:	c40f      	stmia	r4!, {r0, r1, r2, r3}
 23fd12e:	682b      	ldr	r3, [r5, #0]
                    ok = true;
 23fd130:	4649      	mov	r1, r9
 23fd132:	7023      	strb	r3, [r4, #0]
                    break;
 23fd134:	e7c8      	b.n	23fd0c8 <_ZN5spark12NetworkClass7resolveEPKcb+0x7c>
                }
            }
        }
    }
    freeaddrinfo(ai);
 23fd136:	9803      	ldr	r0, [sp, #12]
 23fd138:	f7ff faea 	bl	23fc710 <netdb_freeaddrinfo>
    return Cellular.resolve(name);
#endif // Wiring_Cellular

#endif // HAL_USE_INET_HAL_POSIX
    return addr;
}
 23fd13c:	4638      	mov	r0, r7
 23fd13e:	b019      	add	sp, #100	; 0x64
 23fd140:	e8bd 83f0 	ldmia.w	sp!, {r4, r5, r6, r7, r8, r9, pc}
 23fd144:	40000040 	.word	0x40000040

023fd148 <_ZN5spark12NetworkClass4fromEm>:
    switch (nif) {
 23fd148:	3803      	subs	r0, #3
 23fd14a:	2802      	cmp	r0, #2
 23fd14c:	bf9a      	itte	ls
 23fd14e:	4b02      	ldrls	r3, [pc, #8]	; (23fd158 <_ZN5spark12NetworkClass4fromEm+0x10>)
 23fd150:	f853 0020 	ldrls.w	r0, [r3, r0, lsl #2]
NetworkClass& NetworkClass::from(network_interface_t nif) {
 23fd154:	4801      	ldrhi	r0, [pc, #4]	; (23fd15c <_ZN5spark12NetworkClass4fromEm+0x14>)
}
 23fd156:	4770      	bx	lr
 23fd158:	023ffb08 	.word	0x023ffb08
 23fd15c:	1007af40 	.word	0x1007af40

023fd160 <_ZN5spark12NetworkClass6preferEb>:
NetworkClass& NetworkClass::prefer(bool prefer) {
 23fd160:	b508      	push	{r3, lr}
    network_handle_t network = network_prefer(*this, prefer, nullptr);
 23fd162:	2200      	movs	r2, #0
 23fd164:	6840      	ldr	r0, [r0, #4]
 23fd166:	f7ff fd1f 	bl	23fcba8 <network_prefer>
}
 23fd16a:	e8bd 4008 	ldmia.w	sp!, {r3, lr}
    return Network.from(network);
 23fd16e:	f7ff bfeb 	b.w	23fd148 <_ZN5spark12NetworkClass4fromEm>
	...

023fd174 <_GLOBAL__sub_I__ZN5spark7NetworkE>:
            : iface_(iface) {
 23fd174:	4b02      	ldr	r3, [pc, #8]	; (23fd180 <_GLOBAL__sub_I__ZN5spark7NetworkE+0xc>)
 23fd176:	4a03      	ldr	r2, [pc, #12]	; (23fd184 <_GLOBAL__sub_I__ZN5spark7NetworkE+0x10>)
 23fd178:	601a      	str	r2, [r3, #0]
 23fd17a:	2200      	movs	r2, #0
 23fd17c:	605a      	str	r2, [r3, #4]
    network_free_configuration(c, count, nullptr);
    return res;
}
#endif // HAL_USE_SOCKET_HAL_POSIX

} // spark
 23fd17e:	4770      	bx	lr
 23fd180:	1007af40 	.word	0x1007af40
 23fd184:	023ffb1c 	.word	0x023ffb1c

023fd188 <_ZN5Print5writeEPKhj>:

// Public Methods //////////////////////////////////////////////////////////////

/* default implementation: may be overridden */
size_t Print::write(const uint8_t *buffer, size_t size)
{
 23fd188:	b5f8      	push	{r3, r4, r5, r6, r7, lr}
 23fd18a:	4606      	mov	r6, r0
 23fd18c:	460d      	mov	r5, r1
  size_t n = 0;
 23fd18e:	2400      	movs	r4, #0
 23fd190:	188f      	adds	r7, r1, r2
  while (size--) {
 23fd192:	42bd      	cmp	r5, r7
 23fd194:	d00c      	beq.n	23fd1b0 <_ZN5Print5writeEPKhj+0x28>
     int chunk = write(*buffer++);
 23fd196:	6833      	ldr	r3, [r6, #0]
 23fd198:	4630      	mov	r0, r6
 23fd19a:	689b      	ldr	r3, [r3, #8]
 23fd19c:	f815 1b01 	ldrb.w	r1, [r5], #1
 23fd1a0:	4798      	blx	r3
     if (chunk>=0)
 23fd1a2:	1e03      	subs	r3, r0, #0
 23fd1a4:	db01      	blt.n	23fd1aa <_ZN5Print5writeEPKhj+0x22>
         n += chunk;
 23fd1a6:	441c      	add	r4, r3
  while (size--) {
 23fd1a8:	e7f3      	b.n	23fd192 <_ZN5Print5writeEPKhj+0xa>
     int chunk = write(*buffer++);
 23fd1aa:	2c00      	cmp	r4, #0
 23fd1ac:	bf08      	it	eq
 23fd1ae:	461c      	moveq	r4, r3
             n = chunk;
         break;
     }
  }
  return n;
}
 23fd1b0:	4620      	mov	r0, r4
 23fd1b2:	bdf8      	pop	{r3, r4, r5, r6, r7, pc}

023fd1b4 <_ZN5Print5writeEPKc>:
    size_t write(const char *str) {
 23fd1b4:	b513      	push	{r0, r1, r4, lr}
 23fd1b6:	4604      	mov	r4, r0
    }
 23fd1b8:	4608      	mov	r0, r1
      if (str == NULL) return 0;
 23fd1ba:	b159      	cbz	r1, 23fd1d4 <_ZN5Print5writeEPKc+0x20>
      return write((const uint8_t *)str, strlen(str));
 23fd1bc:	9101      	str	r1, [sp, #4]
 23fd1be:	f7fe fd73 	bl	23fbca8 <strlen>
 23fd1c2:	4602      	mov	r2, r0
 23fd1c4:	4620      	mov	r0, r4
 23fd1c6:	6823      	ldr	r3, [r4, #0]
 23fd1c8:	9901      	ldr	r1, [sp, #4]
 23fd1ca:	68db      	ldr	r3, [r3, #12]
    }
 23fd1cc:	b002      	add	sp, #8
 23fd1ce:	e8bd 4010 	ldmia.w	sp!, {r4, lr}
      return write((const uint8_t *)str, strlen(str));
 23fd1d2:	4718      	bx	r3
    }
 23fd1d4:	b002      	add	sp, #8
 23fd1d6:	bd10      	pop	{r4, pc}

023fd1d8 <_ZN5Print5printEPKc>:

size_t Print::print(const char str[])
{
 23fd1d8:	b508      	push	{r3, lr}
  return write(str);
 23fd1da:	f7ff ffeb 	bl	23fd1b4 <_ZN5Print5writeEPKc>
}
 23fd1de:	bd08      	pop	{r3, pc}

023fd1e0 <_ZN5Print5printEc>:

size_t Print::print(char c)
{
  return write(c);
 23fd1e0:	6803      	ldr	r3, [r0, #0]
 23fd1e2:	689b      	ldr	r3, [r3, #8]
 23fd1e4:	4718      	bx	r3

023fd1e6 <_ZN5Print7printlnEv>:
{
  return print(reinterpret_cast<const char*>(str));
}

size_t Print::println(void)
{
 23fd1e6:	b538      	push	{r3, r4, r5, lr}
  size_t n = print('\r');
 23fd1e8:	210d      	movs	r1, #13
{
 23fd1ea:	4605      	mov	r5, r0
  size_t n = print('\r');
 23fd1ec:	f7ff fff8 	bl	23fd1e0 <_ZN5Print5printEc>
  n += print('\n');
 23fd1f0:	210a      	movs	r1, #10
  size_t n = print('\r');
 23fd1f2:	4604      	mov	r4, r0
  n += print('\n');
 23fd1f4:	4628      	mov	r0, r5
 23fd1f6:	f7ff fff3 	bl	23fd1e0 <_ZN5Print5printEc>
  return n;
}
 23fd1fa:	4420      	add	r0, r4
 23fd1fc:	bd38      	pop	{r3, r4, r5, pc}

023fd1fe <_ZN5Print7printlnEPKc>:

size_t Print::println(const char c[])
{
 23fd1fe:	b538      	push	{r3, r4, r5, lr}
 23fd200:	4605      	mov	r5, r0
  return write(str);
 23fd202:	f7ff ffd7 	bl	23fd1b4 <_ZN5Print5writeEPKc>
 23fd206:	4604      	mov	r4, r0
  size_t n = print(c);
  n += println();
 23fd208:	4628      	mov	r0, r5
 23fd20a:	f7ff ffec 	bl	23fd1e6 <_ZN5Print7printlnEv>
  return n;
}
 23fd20e:	4420      	add	r0, r4
 23fd210:	bd38      	pop	{r3, r4, r5, pc}

023fd212 <_ZN5Print11printNumberEmh>:

size_t Print::printNumber(unsigned long n, uint8_t base) {
  char buf[8 * sizeof(n) + 1]; // Assumes 8-bit chars plus zero byte.
  char *str = &buf[sizeof(buf) - 1];

  *str = '\0';
 23fd212:	2300      	movs	r3, #0

  // prevent crash if called with base == 1
  if (base < 2) base = 10;
 23fd214:	2a01      	cmp	r2, #1
 23fd216:	bf98      	it	ls
 23fd218:	220a      	movls	r2, #10
size_t Print::printNumber(unsigned long n, uint8_t base) {
 23fd21a:	b530      	push	{r4, r5, lr}
 23fd21c:	b08b      	sub	sp, #44	; 0x2c
  *str = '\0';
 23fd21e:	f88d 3024 	strb.w	r3, [sp, #36]	; 0x24
  if (base < 2) base = 10;
 23fd222:	ac09      	add	r4, sp, #36	; 0x24

  do {
   decltype(n) m = n;
   n /= base;
 23fd224:	460d      	mov	r5, r1
 23fd226:	fbb1 f1f2 	udiv	r1, r1, r2
   char c = m - base * n;
 23fd22a:	fb01 5312 	mls	r3, r1, r2, r5
 23fd22e:	f003 03ff 	and.w	r3, r3, #255	; 0xff
   *--str = c < 10 ? c + '0' : c + 'A' - 10;
 23fd232:	2b09      	cmp	r3, #9
 23fd234:	bf94      	ite	ls
 23fd236:	3330      	addls	r3, #48	; 0x30
 23fd238:	3337      	addhi	r3, #55	; 0x37
 23fd23a:	b2db      	uxtb	r3, r3
  } while(n);
 23fd23c:	42aa      	cmp	r2, r5
   *--str = c < 10 ? c + '0' : c + 'A' - 10;
 23fd23e:	f804 3d01 	strb.w	r3, [r4, #-1]!
  } while(n);
 23fd242:	d9ef      	bls.n	23fd224 <_ZN5Print11printNumberEmh+0x12>

  return write(str);
 23fd244:	4621      	mov	r1, r4
 23fd246:	f7ff ffb5 	bl	23fd1b4 <_ZN5Print5writeEPKc>
}
 23fd24a:	b00b      	add	sp, #44	; 0x2c
 23fd24c:	bd30      	pop	{r4, r5, pc}
	...

023fd250 <_GLOBAL__sub_I_RGB>:
	static void
	_M_init_functor(_Any_data& __functor, _Functor&& __f, false_type)
	{ __functor._M_access<_Functor*>() = new _Functor(std::move(__f)); }
      };

    _Function_base() : _M_manager(nullptr) { }
 23fd250:	2200      	movs	r2, #0
 23fd252:	4b01      	ldr	r3, [pc, #4]	; (23fd258 <_GLOBAL__sub_I_RGB+0x8>)
 23fd254:	609a      	str	r2, [r3, #8]
{
    RGBClass* const d = static_cast<RGBClass*>(data);
    if (d->changeHandler_) {
        d->changeHandler_(r, g, b);
    }
}
 23fd256:	4770      	bx	lr
 23fd258:	1007af48 	.word	0x1007af48

023fd25c <_ZN8SPIClass6unlockEv.isra.0>:
  }

  void unlock()
  {
#if HAL_PLATFORM_SPI_HAL_THREAD_SAFETY
    hal_spi_release(_spi, nullptr);
 23fd25c:	2100      	movs	r1, #0
 23fd25e:	f7ff bae3 	b.w	23fc828 <hal_spi_release>

023fd262 <_ZN8SPIClass4lockEv.isra.0>:
    return hal_spi_acquire(_spi, nullptr);
 23fd262:	2100      	movs	r1, #0
 23fd264:	f7ff bad2 	b.w	23fc80c <hal_spi_acquire>

023fd268 <_ZN8SPIClassC1E19hal_spi_interface_t>:
    }
    return particle::SPISettings(info->clock, info->bit_order, info->data_mode);
}
} // namespace

SPIClass::SPIClass(hal_spi_interface_t spi)
 23fd268:	b510      	push	{r4, lr}
 23fd26a:	4604      	mov	r4, r0
 23fd26c:	4608      	mov	r0, r1
{
    _spi = spi;
 23fd26e:	7021      	strb	r1, [r4, #0]
    hal_spi_init(_spi);
 23fd270:	f7ff fa78 	bl	23fc764 <hal_spi_init>
    _dividerReference = SPI_CLK_SYSTEM; // 0 indicates the system clock
 23fd274:	2300      	movs	r3, #0
}
 23fd276:	4620      	mov	r0, r4
    _dividerReference = SPI_CLK_SYSTEM; // 0 indicates the system clock
 23fd278:	6063      	str	r3, [r4, #4]
}
 23fd27a:	bd10      	pop	{r4, pc}

023fd27c <_ZN8SPIClass16beginTransactionEv>:
    }
}

int32_t SPIClass::beginTransaction()
{
    return lock();
 23fd27c:	7800      	ldrb	r0, [r0, #0]
 23fd27e:	f7ff bff0 	b.w	23fd262 <_ZN8SPIClass4lockEv.isra.0>

023fd282 <_ZN8SPIClass14endTransactionEv>:
}

void SPIClass::endTransaction()
{
    // Release peripheral
    unlock();
 23fd282:	7800      	ldrb	r0, [r0, #0]
 23fd284:	f7ff bfea 	b.w	23fd25c <_ZN8SPIClass6unlockEv.isra.0>

023fd288 <_ZN8SPIClass19computeClockDividerEjjRhRj>:
    }
}

void SPIClass::computeClockDivider(unsigned reference, unsigned targetSpeed, uint8_t& divider,
                                   unsigned& clock)
{
 23fd288:	b530      	push	{r4, r5, lr}
    clock = reference;
    uint8_t scale = 0;
    clock >>= 1; // div2 is the first
 23fd28a:	2400      	movs	r4, #0
 23fd28c:	0840      	lsrs	r0, r0, #1
 23fd28e:	6018      	str	r0, [r3, #0]
    while (clock > targetSpeed && scale < 7)
 23fd290:	6818      	ldr	r0, [r3, #0]
 23fd292:	b2e5      	uxtb	r5, r4
 23fd294:	4288      	cmp	r0, r1
 23fd296:	d906      	bls.n	23fd2a6 <_ZN8SPIClass19computeClockDividerEjjRhRj+0x1e>
 23fd298:	3401      	adds	r4, #1
 23fd29a:	2c08      	cmp	r4, #8
 23fd29c:	d002      	beq.n	23fd2a4 <_ZN8SPIClass19computeClockDividerEjjRhRj+0x1c>
    {
        clock >>= 1;
 23fd29e:	0840      	lsrs	r0, r0, #1
 23fd2a0:	6018      	str	r0, [r3, #0]
    while (clock > targetSpeed && scale < 7)
 23fd2a2:	e7f5      	b.n	23fd290 <_ZN8SPIClass19computeClockDividerEjjRhRj+0x8>
 23fd2a4:	2507      	movs	r5, #7
        scale++;
    }
    divider = clock_divisors[scale];
 23fd2a6:	4b02      	ldr	r3, [pc, #8]	; (23fd2b0 <_ZN8SPIClass19computeClockDividerEjjRhRj+0x28>)
 23fd2a8:	5d5b      	ldrb	r3, [r3, r5]
 23fd2aa:	7013      	strb	r3, [r2, #0]
}
 23fd2ac:	bd30      	pop	{r4, r5, pc}
 23fd2ae:	bf00      	nop
 23fd2b0:	023ffb58 	.word	0x023ffb58

023fd2b4 <_ZN8SPIClass13setClockSpeedEjj>:

unsigned SPIClass::setClockSpeed(unsigned value, unsigned value_scale)
{
    unsigned clock = 0;
 23fd2b4:	2300      	movs	r3, #0
{
 23fd2b6:	e92d 41f0 	stmdb	sp!, {r4, r5, r6, r7, r8, lr}
 23fd2ba:	4604      	mov	r4, r0
 23fd2bc:	b088      	sub	sp, #32

    // actual speed is the system clock divided by some scalar
    unsigned targetSpeed = value * value_scale;

    if (!lock())
 23fd2be:	7800      	ldrb	r0, [r0, #0]
{
 23fd2c0:	460e      	mov	r6, r1
 23fd2c2:	4617      	mov	r7, r2
    unsigned clock = 0;
 23fd2c4:	9302      	str	r3, [sp, #8]
    if (!lock())
 23fd2c6:	f7ff ffcc 	bl	23fd262 <_ZN8SPIClass4lockEv.isra.0>
 23fd2ca:	4605      	mov	r5, r0
 23fd2cc:	bb00      	cbnz	r0, 23fd310 <_ZN8SPIClass13setClockSpeedEjj+0x5c>
    memset(info, 0, sizeof(hal_spi_info_t));
 23fd2ce:	4601      	mov	r1, r0
 23fd2d0:	2214      	movs	r2, #20
 23fd2d2:	a803      	add	r0, sp, #12
    {
        // Query SPI info
        hal_spi_info_t info;
        querySpiInfo(_spi, &info);
 23fd2d4:	f894 8000 	ldrb.w	r8, [r4]
    memset(info, 0, sizeof(hal_spi_info_t));
 23fd2d8:	f000 fc7c 	bl	23fdbd4 <memset>
    info->version = HAL_SPI_INFO_VERSION_1;
 23fd2dc:	230b      	movs	r3, #11
    hal_spi_info(spi, info, nullptr);
 23fd2de:	462a      	mov	r2, r5
 23fd2e0:	4640      	mov	r0, r8
 23fd2e2:	a903      	add	r1, sp, #12
    info->version = HAL_SPI_INFO_VERSION_1;
 23fd2e4:	f8ad 300c 	strh.w	r3, [sp, #12]
    hal_spi_info(spi, info, nullptr);
 23fd2e8:	f7ff fa58 	bl	23fc79c <hal_spi_info>

        // Calculate clock divider
        uint8_t divisor = 0;
        computeClockDivider(info.system_clock, targetSpeed, divisor, clock);
 23fd2ec:	fb07 f106 	mul.w	r1, r7, r6
 23fd2f0:	9804      	ldr	r0, [sp, #16]
 23fd2f2:	ab02      	add	r3, sp, #8
 23fd2f4:	f10d 0207 	add.w	r2, sp, #7
        uint8_t divisor = 0;
 23fd2f8:	f88d 5007 	strb.w	r5, [sp, #7]
        computeClockDivider(info.system_clock, targetSpeed, divisor, clock);
 23fd2fc:	f7ff ffc4 	bl	23fd288 <_ZN8SPIClass19computeClockDividerEjjRhRj>

        // Update SPI peripheral
        hal_spi_set_clock_divider(_spi, divisor);
 23fd300:	7820      	ldrb	r0, [r4, #0]
 23fd302:	f89d 1007 	ldrb.w	r1, [sp, #7]
 23fd306:	f7ff fa1f 	bl	23fc748 <hal_spi_set_clock_divider>
        unlock();
 23fd30a:	7820      	ldrb	r0, [r4, #0]
 23fd30c:	f7ff ffa6 	bl	23fd25c <_ZN8SPIClass6unlockEv.isra.0>
    }

    return clock;
}
 23fd310:	9802      	ldr	r0, [sp, #8]
 23fd312:	b008      	add	sp, #32
 23fd314:	e8bd 81f0 	ldmia.w	sp!, {r4, r5, r6, r7, r8, pc}

023fd318 <_ZN8SPIClass8transferEPKvPvjPFvvE>:
    return static_cast<byte>(hal_spi_transfer(_spi, _data));
}

void SPIClass::transfer(const void* tx_buffer, void* rx_buffer, size_t length,
                        wiring_spi_dma_transfercomplete_callback_t user_callback)
{
 23fd318:	b530      	push	{r4, r5, lr}
 23fd31a:	b087      	sub	sp, #28
 23fd31c:	9d0a      	ldr	r5, [sp, #40]	; 0x28
 23fd31e:	4604      	mov	r4, r0
    hal_spi_transfer_dma(_spi, tx_buffer, rx_buffer, length, user_callback);
 23fd320:	9500      	str	r5, [sp, #0]
 23fd322:	7800      	ldrb	r0, [r0, #0]
 23fd324:	f7ff fa48 	bl	23fc7b8 <hal_spi_transfer_dma>
    if (user_callback == NULL)
 23fd328:	b93d      	cbnz	r5, 23fd33a <_ZN8SPIClass8transferEPKvPvjPFvvE+0x22>
    {
        hal_spi_transfer_status_t st;
        do
        {
            hal_spi_transfer_dma_status(_spi, &st);
 23fd32a:	7820      	ldrb	r0, [r4, #0]
 23fd32c:	a902      	add	r1, sp, #8
 23fd32e:	f7ff fa5f 	bl	23fc7f0 <hal_spi_transfer_dma_status>
        } while (st.transfer_ongoing);
 23fd332:	f89d 3014 	ldrb.w	r3, [sp, #20]
 23fd336:	07db      	lsls	r3, r3, #31
 23fd338:	d4f7      	bmi.n	23fd32a <_ZN8SPIClass8transferEPKvPvjPFvvE+0x12>
    }
}
 23fd33a:	b007      	add	sp, #28
 23fd33c:	bd30      	pop	{r4, r5, pc}

023fd33e <_ZN6Stream9timedReadEv>:
#define PARSE_TIMEOUT 1000  // default number of milli-seconds to wait
#define NO_SKIP_CHAR  1  // a magic char not found in a valid ASCII numeric field

// private method to read stream with timeout
int Stream::timedRead()
{
 23fd33e:	b510      	push	{r4, lr}
 23fd340:	4604      	mov	r4, r0

#ifdef __cplusplus
extern "C" {
#endif

inline system_tick_t millis(void) { return HAL_Timer_Get_Milli_Seconds(); }
 23fd342:	f7ff f905 	bl	23fc550 <HAL_Timer_Get_Milli_Seconds>
  int c;
  _startMillis = millis();
 23fd346:	60e0      	str	r0, [r4, #12]
  do {
    c = read();
 23fd348:	6823      	ldr	r3, [r4, #0]
 23fd34a:	4620      	mov	r0, r4
 23fd34c:	695b      	ldr	r3, [r3, #20]
 23fd34e:	4798      	blx	r3
    if (c >= 0) return c;
 23fd350:	2800      	cmp	r0, #0
 23fd352:	da08      	bge.n	23fd366 <_ZN6Stream9timedReadEv+0x28>
 23fd354:	f7ff f8fc 	bl	23fc550 <HAL_Timer_Get_Milli_Seconds>
  } while(millis() - _startMillis < _timeout);
 23fd358:	68e3      	ldr	r3, [r4, #12]
 23fd35a:	1ac0      	subs	r0, r0, r3
 23fd35c:	68a3      	ldr	r3, [r4, #8]
 23fd35e:	4298      	cmp	r0, r3
 23fd360:	d3f2      	bcc.n	23fd348 <_ZN6Stream9timedReadEv+0xa>
  return -1;     // -1 indicates timeout
 23fd362:	f04f 30ff 	mov.w	r0, #4294967295	; 0xffffffff
}
 23fd366:	bd10      	pop	{r4, pc}

023fd368 <_ZN6Stream9readBytesEPcj>:
// terminates if length characters have been read, or timeout (see setTimeout)
// returns the number of characters placed in the buffer
// the buffer is NOT null terminated.
//
size_t Stream::readBytes(char *buffer, size_t length)
{
 23fd368:	e92d 41f0 	stmdb	sp!, {r4, r5, r6, r7, r8, lr}
 23fd36c:	4607      	mov	r7, r0
 23fd36e:	460c      	mov	r4, r1
 23fd370:	460d      	mov	r5, r1
 23fd372:	188e      	adds	r6, r1, r2
  size_t count = 0;
  while (count < length) {
 23fd374:	42b5      	cmp	r5, r6
 23fd376:	eba5 0804 	sub.w	r8, r5, r4
 23fd37a:	d007      	beq.n	23fd38c <_ZN6Stream9readBytesEPcj+0x24>
    int c = timedRead();
 23fd37c:	4638      	mov	r0, r7
 23fd37e:	f7ff ffde 	bl	23fd33e <_ZN6Stream9timedReadEv>
    if (c < 0) break;
 23fd382:	1e03      	subs	r3, r0, #0
 23fd384:	db02      	blt.n	23fd38c <_ZN6Stream9readBytesEPcj+0x24>
    *buffer++ = (char)c;
 23fd386:	f805 3b01 	strb.w	r3, [r5], #1
  while (count < length) {
 23fd38a:	e7f3      	b.n	23fd374 <_ZN6Stream9readBytesEPcj+0xc>
    count++;
  }
  return count;
}
 23fd38c:	4640      	mov	r0, r8
 23fd38e:	e8bd 81f0 	ldmia.w	sp!, {r4, r5, r6, r7, r8, pc}

023fd392 <_ZN6StringD1Ev>:
    init();
    char buf[33] = {};
    dtoa(value, decimalPlaces, buf);
  *this = buf;
}
String::~String()
 23fd392:	b510      	push	{r4, lr}
 23fd394:	4604      	mov	r4, r0
{
    free(buffer);
 23fd396:	6800      	ldr	r0, [r0, #0]
 23fd398:	f7ff fc68 	bl	23fcc6c <free>
}
 23fd39c:	4620      	mov	r0, r4
 23fd39e:	bd10      	pop	{r4, pc}

023fd3a0 <_ZN6String10invalidateEv>:
    len = 0;
    flags = 0;
}

void String::invalidate(void)
{
 23fd3a0:	b510      	push	{r4, lr}
 23fd3a2:	4604      	mov	r4, r0
    if (buffer) {
 23fd3a4:	6800      	ldr	r0, [r0, #0]
 23fd3a6:	b108      	cbz	r0, 23fd3ac <_ZN6String10invalidateEv+0xc>
        free(buffer);
 23fd3a8:	f7ff fc60 	bl	23fcc6c <free>
    }
    buffer = nullptr;
 23fd3ac:	2300      	movs	r3, #0
    capacity_ = len = 0;
 23fd3ae:	e9c4 3301 	strd	r3, r3, [r4, #4]
    buffer = nullptr;
 23fd3b2:	6023      	str	r3, [r4, #0]
}
 23fd3b4:	bd10      	pop	{r4, pc}

023fd3b6 <_ZN6String12changeBufferEj>:
    len = size;
    return true;
}

unsigned char String::changeBuffer(unsigned int maxStrLen)
{
 23fd3b6:	b538      	push	{r3, r4, r5, lr}
 23fd3b8:	4604      	mov	r4, r0
 23fd3ba:	460d      	mov	r5, r1
    char *newbuffer = (char *)realloc(buffer, maxStrLen + 1);
 23fd3bc:	6800      	ldr	r0, [r0, #0]
 23fd3be:	3101      	adds	r1, #1
 23fd3c0:	f7ff fc62 	bl	23fcc88 <realloc>
    if (newbuffer) {
 23fd3c4:	b110      	cbz	r0, 23fd3cc <_ZN6String12changeBufferEj+0x16>
        buffer = newbuffer;
        capacity_ = maxStrLen;
 23fd3c6:	e9c4 0500 	strd	r0, r5, [r4]
        return 1;
 23fd3ca:	2001      	movs	r0, #1
    }
    return 0;
}
 23fd3cc:	bd38      	pop	{r3, r4, r5, pc}

023fd3ce <_ZN6String7reserveEj>:
{
 23fd3ce:	b510      	push	{r4, lr}
    if (buffer && capacity_ >= size) {
 23fd3d0:	6803      	ldr	r3, [r0, #0]
{
 23fd3d2:	4604      	mov	r4, r0
    if (buffer && capacity_ >= size) {
 23fd3d4:	b123      	cbz	r3, 23fd3e0 <_ZN6String7reserveEj+0x12>
 23fd3d6:	6843      	ldr	r3, [r0, #4]
 23fd3d8:	428b      	cmp	r3, r1
 23fd3da:	d301      	bcc.n	23fd3e0 <_ZN6String7reserveEj+0x12>
 23fd3dc:	2001      	movs	r0, #1
}
 23fd3de:	bd10      	pop	{r4, pc}
    if (changeBuffer(size)) {
 23fd3e0:	4620      	mov	r0, r4
 23fd3e2:	f7ff ffe8 	bl	23fd3b6 <_ZN6String12changeBufferEj>
 23fd3e6:	2800      	cmp	r0, #0
 23fd3e8:	d0f9      	beq.n	23fd3de <_ZN6String7reserveEj+0x10>
        if (len == 0) {
 23fd3ea:	68a3      	ldr	r3, [r4, #8]
 23fd3ec:	2b00      	cmp	r3, #0
 23fd3ee:	d1f5      	bne.n	23fd3dc <_ZN6String7reserveEj+0xe>
            buffer[0] = 0;
 23fd3f0:	6822      	ldr	r2, [r4, #0]
 23fd3f2:	7013      	strb	r3, [r2, #0]
 23fd3f4:	e7f2      	b.n	23fd3dc <_ZN6String7reserveEj+0xe>

023fd3f6 <_ZN6String4copyEPKcj>:
/*********************************************/
/*  Copy and Move                            */
/*********************************************/

String & String::copy(const char *cstr, unsigned int length)
{
 23fd3f6:	b537      	push	{r0, r1, r2, r4, r5, lr}
 23fd3f8:	460d      	mov	r5, r1
    if (!reserve(length)) {
 23fd3fa:	4611      	mov	r1, r2
 23fd3fc:	9201      	str	r2, [sp, #4]
{
 23fd3fe:	4604      	mov	r4, r0
    if (!reserve(length)) {
 23fd400:	f7ff ffe5 	bl	23fd3ce <_ZN6String7reserveEj>
 23fd404:	9a01      	ldr	r2, [sp, #4]
 23fd406:	b928      	cbnz	r0, 23fd414 <_ZN6String4copyEPKcj+0x1e>
        invalidate();
 23fd408:	4620      	mov	r0, r4
 23fd40a:	f7ff ffc9 	bl	23fd3a0 <_ZN6String10invalidateEv>
    }
    len = length;
    memcpy(buffer, cstr, length);
    buffer[len] = 0;
    return *this;
}
 23fd40e:	4620      	mov	r0, r4
 23fd410:	b003      	add	sp, #12
 23fd412:	bd30      	pop	{r4, r5, pc}
    memcpy(buffer, cstr, length);
 23fd414:	4629      	mov	r1, r5
    len = length;
 23fd416:	60a2      	str	r2, [r4, #8]
    memcpy(buffer, cstr, length);
 23fd418:	6820      	ldr	r0, [r4, #0]
 23fd41a:	f000 fbce 	bl	23fdbba <memcpy>
    buffer[len] = 0;
 23fd41e:	2100      	movs	r1, #0
 23fd420:	6822      	ldr	r2, [r4, #0]
 23fd422:	68a3      	ldr	r3, [r4, #8]
 23fd424:	54d1      	strb	r1, [r2, r3]
    return *this;
 23fd426:	e7f2      	b.n	23fd40e <_ZN6String4copyEPKcj+0x18>

023fd428 <_ZN6StringC1EPK19__FlashStringHelper>:
    buffer = nullptr;
 23fd428:	2300      	movs	r3, #0
String::String(const __FlashStringHelper *pstr)
 23fd42a:	b513      	push	{r0, r1, r4, lr}
 23fd42c:	4604      	mov	r4, r0
    capacity_ = 0;
 23fd42e:	e9c0 3300 	strd	r3, r3, [r0]
    len = 0;
 23fd432:	6083      	str	r3, [r0, #8]
    flags = 0;
 23fd434:	7303      	strb	r3, [r0, #12]
    if (cstr) {
 23fd436:	b141      	cbz	r1, 23fd44a <_ZN6StringC1EPK19__FlashStringHelper+0x22>
        copy(cstr, strlen(cstr));
 23fd438:	4608      	mov	r0, r1
 23fd43a:	9101      	str	r1, [sp, #4]
 23fd43c:	f7fe fc34 	bl	23fbca8 <strlen>
 23fd440:	9901      	ldr	r1, [sp, #4]
 23fd442:	4602      	mov	r2, r0
 23fd444:	4620      	mov	r0, r4
 23fd446:	f7ff ffd6 	bl	23fd3f6 <_ZN6String4copyEPKcj>
}
 23fd44a:	4620      	mov	r0, r4
 23fd44c:	b002      	add	sp, #8
 23fd44e:	bd10      	pop	{r4, pc}

023fd450 <_ZN6StringaSERKS_>:
}
#endif

String & String::operator = (const String &rhs)
{
    if (this == &rhs) {
 23fd450:	4288      	cmp	r0, r1
{
 23fd452:	b510      	push	{r4, lr}
 23fd454:	4604      	mov	r4, r0
    if (this == &rhs) {
 23fd456:	d005      	beq.n	23fd464 <_ZN6StringaSERKS_+0x14>
        return *this;
    }

    if (rhs.buffer) {
 23fd458:	680b      	ldr	r3, [r1, #0]
 23fd45a:	b12b      	cbz	r3, 23fd468 <_ZN6StringaSERKS_+0x18>
        copy(rhs.buffer, rhs.len);
 23fd45c:	688a      	ldr	r2, [r1, #8]
 23fd45e:	4619      	mov	r1, r3
 23fd460:	f7ff ffc9 	bl	23fd3f6 <_ZN6String4copyEPKcj>
    else {
        invalidate();
    }

    return *this;
}
 23fd464:	4620      	mov	r0, r4
 23fd466:	bd10      	pop	{r4, pc}
        invalidate();
 23fd468:	f7ff ff9a 	bl	23fd3a0 <_ZN6String10invalidateEv>
 23fd46c:	e7fa      	b.n	23fd464 <_ZN6StringaSERKS_+0x14>

023fd46e <_ZN6StringC1ERKS_>:
    buffer = nullptr;
 23fd46e:	2300      	movs	r3, #0
String::String(const String &value)
 23fd470:	b510      	push	{r4, lr}
 23fd472:	4604      	mov	r4, r0
    capacity_ = 0;
 23fd474:	e9c0 3300 	strd	r3, r3, [r0]
    len = 0;
 23fd478:	6083      	str	r3, [r0, #8]
    flags = 0;
 23fd47a:	7303      	strb	r3, [r0, #12]
    *this = value;
 23fd47c:	f7ff ffe8 	bl	23fd450 <_ZN6StringaSERKS_>
}
 23fd480:	4620      	mov	r0, r4
 23fd482:	bd10      	pop	{r4, pc}

023fd484 <_ZNK6String6equalsEPKc>:
{
    return (len == s2.len && compareTo(s2) == 0);
}

unsigned char String::equals(const char *cstr) const
{
 23fd484:	b508      	push	{r3, lr}
    if (len == 0) {
 23fd486:	6882      	ldr	r2, [r0, #8]
 23fd488:	b93a      	cbnz	r2, 23fd49a <_ZNK6String6equalsEPKc+0x16>
        return (cstr == nullptr || *cstr == 0);
 23fd48a:	b121      	cbz	r1, 23fd496 <_ZNK6String6equalsEPKc+0x12>
 23fd48c:	7808      	ldrb	r0, [r1, #0]
    }
    if (cstr == nullptr) {
        return buffer[0] == 0;
    }
    return strcmp(buffer, cstr) == 0;
 23fd48e:	fab0 f080 	clz	r0, r0
 23fd492:	0940      	lsrs	r0, r0, #5
 23fd494:	e000      	b.n	23fd498 <_ZNK6String6equalsEPKc+0x14>
        return (cstr == nullptr || *cstr == 0);
 23fd496:	2001      	movs	r0, #1
}
 23fd498:	bd08      	pop	{r3, pc}
        return buffer[0] == 0;
 23fd49a:	6800      	ldr	r0, [r0, #0]
    if (cstr == nullptr) {
 23fd49c:	b909      	cbnz	r1, 23fd4a2 <_ZNK6String6equalsEPKc+0x1e>
        return buffer[0] == 0;
 23fd49e:	7800      	ldrb	r0, [r0, #0]
 23fd4a0:	e7f5      	b.n	23fd48e <_ZNK6String6equalsEPKc+0xa>
    return strcmp(buffer, cstr) == 0;
 23fd4a2:	f7fe fbf7 	bl	23fbc94 <strcmp>
 23fd4a6:	e7f2      	b.n	23fd48e <_ZNK6String6equalsEPKc+0xa>

023fd4a8 <_ZNK6String7toFloatEv>:
    }
    return 0;
}

float String::toFloat(void) const
{
 23fd4a8:	b508      	push	{r3, lr}
    if (buffer) {
 23fd4aa:	6800      	ldr	r0, [r0, #0]
 23fd4ac:	b140      	cbz	r0, 23fd4c0 <_ZNK6String7toFloatEv+0x18>
        return float(atof(buffer));
 23fd4ae:	f000 fb81 	bl	23fdbb4 <atof>
 23fd4b2:	ec51 0b10 	vmov	r0, r1, d0
 23fd4b6:	f7fe fb7f 	bl	23fbbb8 <__aeabi_d2f>
 23fd4ba:	ee00 0a10 	vmov	s0, r0
    }
    return 0;
}
 23fd4be:	bd08      	pop	{r3, pc}
    return 0;
 23fd4c0:	ed9f 0a01 	vldr	s0, [pc, #4]	; 23fd4c8 <_ZNK6String7toFloatEv+0x20>
 23fd4c4:	e7fb      	b.n	23fd4be <_ZNK6String7toFloatEv+0x16>
 23fd4c6:	bf00      	nop
 23fd4c8:	00000000 	.word	0x00000000

023fd4cc <_GLOBAL__sub_I_System>:
} // namespace particle

// particle::Flag<TagT, ValueT>
template<typename TagT, typename ValueT>
inline particle::Flag<TagT, ValueT>::Flag(ValueT val) :
        val_(val) {
 23fd4cc:	2202      	movs	r2, #2

class SystemSleepResult {
public:
    SystemSleepResult()
            : wakeupSource_(nullptr),
              error_(SYSTEM_ERROR_NONE) {
 23fd4ce:	2000      	movs	r0, #0
 23fd4d0:	4b04      	ldr	r3, [pc, #16]	; (23fd4e4 <_GLOBAL__sub_I_System+0x18>)
 23fd4d2:	601a      	str	r2, [r3, #0]
 23fd4d4:	4b04      	ldr	r3, [pc, #16]	; (23fd4e8 <_GLOBAL__sub_I_System+0x1c>)
    SleepResult() {}
 23fd4d6:	4a05      	ldr	r2, [pc, #20]	; (23fd4ec <_GLOBAL__sub_I_System+0x20>)
              error_(SYSTEM_ERROR_NONE) {
 23fd4d8:	e9c3 0000 	strd	r0, r0, [r3]
    SleepResult() {}
 23fd4dc:	609a      	str	r2, [r3, #8]

class SystemClass {
public:

    SystemClass(System_Mode_TypeDef mode = DEFAULT) {
        set_system_mode(mode);
 23fd4de:	f7ff bb7f 	b.w	23fcbe0 <set_system_mode>
 23fd4e2:	bf00      	nop
 23fd4e4:	1007af64 	.word	0x1007af64
 23fd4e8:	1007af58 	.word	0x1007af58
 23fd4ec:	ffff0000 	.word	0xffff0000

023fd4f0 <_GLOBAL__sub_I_TIME_FORMAT_DEFAULT>:
            calendar_time_cache = Convert_UnixTime_To_CalendarTime(unix_time);
            unix_time_cache = unix_time;
    }
}

const char* TimeClass::format_spec = TIME_FORMAT_DEFAULT;
 23fd4f0:	4b02      	ldr	r3, [pc, #8]	; (23fd4fc <_GLOBAL__sub_I_TIME_FORMAT_DEFAULT+0xc>)
 23fd4f2:	681a      	ldr	r2, [r3, #0]
 23fd4f4:	4b02      	ldr	r3, [pc, #8]	; (23fd500 <_GLOBAL__sub_I_TIME_FORMAT_DEFAULT+0x10>)
 23fd4f6:	601a      	str	r2, [r3, #0]
{
  return isValid();
}


TimeClass Time;
 23fd4f8:	4770      	bx	lr
 23fd4fa:	bf00      	nop
 23fd4fc:	1007ad04 	.word	0x1007ad04
 23fd500:	1007af68 	.word	0x1007af68

023fd504 <_ZN11USARTSerialD1Ev>:
private:
  hal_usart_interface_t _serial;
  bool _blocking;
public:
  USARTSerial(hal_usart_interface_t serial, const hal_usart_buffer_config_t& config);
  virtual ~USARTSerial() {};
 23fd504:	4770      	bx	lr

023fd506 <_ZN11USARTSerial14blockOnOverrunEb>:
    hal_usart_half_duplex(_serial, Enable);
}

void USARTSerial::blockOnOverrun(bool block)
{
  _blocking = block;
 23fd506:	7441      	strb	r1, [r0, #17]
}
 23fd508:	4770      	bx	lr

023fd50a <_ZN11USARTSerial17availableForWriteEv>:


int USARTSerial::availableForWrite(void)
{
 23fd50a:	b508      	push	{r3, lr}
  return std::max(0, (int)hal_usart_available_data_for_write(_serial));
 23fd50c:	7c00      	ldrb	r0, [r0, #16]
 23fd50e:	f7ff f9ed 	bl	23fc8ec <hal_usart_available_data_for_write>
}
 23fd512:	ea20 70e0 	bic.w	r0, r0, r0, asr #31
 23fd516:	bd08      	pop	{r3, pc}

023fd518 <_ZN11USARTSerial9availableEv>:

int USARTSerial::available(void)
{
 23fd518:	b508      	push	{r3, lr}
  return std::max(0, (int)hal_usart_available(_serial));
 23fd51a:	7c00      	ldrb	r0, [r0, #16]
 23fd51c:	f7ff f9a0 	bl	23fc860 <hal_usart_available>
}
 23fd520:	ea20 70e0 	bic.w	r0, r0, r0, asr #31
 23fd524:	bd08      	pop	{r3, pc}

023fd526 <_ZN11USARTSerial4peekEv>:

int USARTSerial::peek(void)
{
 23fd526:	b508      	push	{r3, lr}
  return std::max(-1, (int)hal_usart_peek(_serial));
 23fd528:	7c00      	ldrb	r0, [r0, #16]
 23fd52a:	f7ff f9b5 	bl	23fc898 <hal_usart_peek>
}
 23fd52e:	ea40 70e0 	orr.w	r0, r0, r0, asr #31
 23fd532:	bd08      	pop	{r3, pc}

023fd534 <_ZN11USARTSerial4readEv>:

int USARTSerial::read(void)
{
 23fd534:	b508      	push	{r3, lr}
  return std::max(-1, (int)hal_usart_read(_serial));
 23fd536:	7c00      	ldrb	r0, [r0, #16]
 23fd538:	f7ff f9a0 	bl	23fc87c <hal_usart_read>
}
 23fd53c:	ea40 70e0 	orr.w	r0, r0, r0, asr #31
 23fd540:	bd08      	pop	{r3, pc}

023fd542 <_ZN11USARTSerial5flushEv>:

void USARTSerial::flush()
{
  hal_usart_flush(_serial);
 23fd542:	7c00      	ldrb	r0, [r0, #16]
 23fd544:	f7ff b9b6 	b.w	23fc8b4 <hal_usart_flush>

023fd548 <_ZN11USARTSerial5writeEh>:
}

size_t USARTSerial::write(uint8_t c)
{
 23fd548:	b537      	push	{r0, r1, r2, r4, r5, lr}
  // attempt a write if blocking, or for non-blocking if there is room.
  if (_blocking || hal_usart_available_data_for_write(_serial) > 0) {
 23fd54a:	7c45      	ldrb	r5, [r0, #17]
{
 23fd54c:	4604      	mov	r4, r0
  if (_blocking || hal_usart_available_data_for_write(_serial) > 0) {
 23fd54e:	b12d      	cbz	r5, 23fd55c <_ZN11USARTSerial5writeEh+0x14>
    // the HAL always blocks.
	  return hal_usart_write(_serial, c);
 23fd550:	7c20      	ldrb	r0, [r4, #16]
  }
  return 0;
}
 23fd552:	b003      	add	sp, #12
 23fd554:	e8bd 4030 	ldmia.w	sp!, {r4, r5, lr}
	  return hal_usart_write(_serial, c);
 23fd558:	f7ff b974 	b.w	23fc844 <hal_usart_write>
  if (_blocking || hal_usart_available_data_for_write(_serial) > 0) {
 23fd55c:	7c00      	ldrb	r0, [r0, #16]
 23fd55e:	9101      	str	r1, [sp, #4]
 23fd560:	f7ff f9c4 	bl	23fc8ec <hal_usart_available_data_for_write>
 23fd564:	2800      	cmp	r0, #0
 23fd566:	9901      	ldr	r1, [sp, #4]
 23fd568:	dcf2      	bgt.n	23fd550 <_ZN11USARTSerial5writeEh+0x8>
}
 23fd56a:	4628      	mov	r0, r5
 23fd56c:	b003      	add	sp, #12
 23fd56e:	bd30      	pop	{r4, r5, pc}

023fd570 <_ZN11USARTSerialD0Ev>:
 23fd570:	b510      	push	{r4, lr}
 23fd572:	4604      	mov	r4, r0
 23fd574:	2114      	movs	r1, #20
 23fd576:	f7fe fbd6 	bl	23fbd26 <_ZdlPvj>
 23fd57a:	4620      	mov	r0, r4
 23fd57c:	bd10      	pop	{r4, pc}
	...

023fd580 <_ZN11USARTSerialC1E21hal_usart_interface_tRK25hal_usart_buffer_config_t>:
USARTSerial::USARTSerial(hal_usart_interface_t serial, const hal_usart_buffer_config_t& config)
 23fd580:	b510      	push	{r4, lr}
 23fd582:	f44f 737a 	mov.w	r3, #1000	; 0x3e8
 23fd586:	4604      	mov	r4, r0
 23fd588:	4608      	mov	r0, r1
 23fd58a:	4611      	mov	r1, r2
 23fd58c:	2200      	movs	r2, #0
 23fd58e:	e9c4 2301 	strd	r2, r3, [r4, #4]
 23fd592:	4b04      	ldr	r3, [pc, #16]	; (23fd5a4 <_ZN11USARTSerialC1E21hal_usart_interface_tRK25hal_usart_buffer_config_t+0x24>)
  _serial = serial;
 23fd594:	7420      	strb	r0, [r4, #16]
USARTSerial::USARTSerial(hal_usart_interface_t serial, const hal_usart_buffer_config_t& config)
 23fd596:	6023      	str	r3, [r4, #0]
  _blocking = true;
 23fd598:	2301      	movs	r3, #1
 23fd59a:	7463      	strb	r3, [r4, #17]
  hal_usart_init_ex(serial, &config, nullptr);
 23fd59c:	f7ff f9b4 	bl	23fc908 <hal_usart_init_ex>
}
 23fd5a0:	4620      	mov	r0, r4
 23fd5a2:	bd10      	pop	{r4, pc}
 23fd5a4:	023ffb84 	.word	0x023ffb84

023fd5a8 <_ZN11USARTSerial9isEnabledEv>:
USARTSerial::operator bool() {
  return true;
}

bool USARTSerial::isEnabled() {
  return hal_usart_is_enabled(_serial);
 23fd5a8:	7c00      	ldrb	r0, [r0, #16]
 23fd5aa:	f7ff b991 	b.w	23fc8d0 <hal_usart_is_enabled>

023fd5ae <_ZN9USBSerial14blockOnOverrunEb>:
  HAL_USB_USART_Flush_Data(_serial);
}

void USBSerial::blockOnOverrun(bool block)
{
  _blocking = block;
 23fd5ae:	7441      	strb	r1, [r0, #17]
}
 23fd5b0:	4770      	bx	lr

023fd5b2 <__tcf_0>:
}

USBSerial& _fetch_usbserial()
{
  HAL_USB_USART_Config conf = acquireSerialBuffer();
	static USBSerial _usbserial(HAL_USB_USART_SERIAL, conf);
 23fd5b2:	4770      	bx	lr

023fd5b4 <_ZN9USBSerialD1Ev>:
#include "usb_hal.h"
#include "system_task.h"
#include "spark_wiring_startup.h"
#include "concurrent_hal.h"

class USBSerial : public Stream
 23fd5b4:	4770      	bx	lr

023fd5b6 <_ZN9USBSerial4readEv>:
{
 23fd5b6:	b508      	push	{r3, lr}
	return std::max(-1, (int)HAL_USB_USART_Receive_Data(_serial, false));
 23fd5b8:	2100      	movs	r1, #0
 23fd5ba:	7c00      	ldrb	r0, [r0, #16]
 23fd5bc:	f7ff f9ea 	bl	23fc994 <HAL_USB_USART_Receive_Data>
}
 23fd5c0:	ea40 70e0 	orr.w	r0, r0, r0, asr #31
 23fd5c4:	bd08      	pop	{r3, pc}

023fd5c6 <_ZN9USBSerial4peekEv>:
{
 23fd5c6:	b508      	push	{r3, lr}
	return std::max(-1, (int)HAL_USB_USART_Receive_Data(_serial, true));
 23fd5c8:	2101      	movs	r1, #1
 23fd5ca:	7c00      	ldrb	r0, [r0, #16]
 23fd5cc:	f7ff f9e2 	bl	23fc994 <HAL_USB_USART_Receive_Data>
}
 23fd5d0:	ea40 70e0 	orr.w	r0, r0, r0, asr #31
 23fd5d4:	bd08      	pop	{r3, pc}

023fd5d6 <_ZN9USBSerial17availableForWriteEv>:
{
 23fd5d6:	b508      	push	{r3, lr}
  return std::max(0, (int)HAL_USB_USART_Available_Data_For_Write(_serial));
 23fd5d8:	7c00      	ldrb	r0, [r0, #16]
 23fd5da:	f7ff f9cd 	bl	23fc978 <HAL_USB_USART_Available_Data_For_Write>
}
 23fd5de:	ea20 70e0 	bic.w	r0, r0, r0, asr #31
 23fd5e2:	bd08      	pop	{r3, pc}

023fd5e4 <_ZN9USBSerial9availableEv>:
{
 23fd5e4:	b508      	push	{r3, lr}
	return std::max(0, (int)HAL_USB_USART_Available_Data(_serial));
 23fd5e6:	7c00      	ldrb	r0, [r0, #16]
 23fd5e8:	f7ff f9b8 	bl	23fc95c <HAL_USB_USART_Available_Data>
}
 23fd5ec:	ea20 70e0 	bic.w	r0, r0, r0, asr #31
 23fd5f0:	bd08      	pop	{r3, pc}

023fd5f2 <_ZN9USBSerial5writeEh>:
{
 23fd5f2:	b513      	push	{r0, r1, r4, lr}
 23fd5f4:	4604      	mov	r4, r0
  if (HAL_USB_USART_Available_Data_For_Write(_serial) > 0 || _blocking) {
 23fd5f6:	7c00      	ldrb	r0, [r0, #16]
{
 23fd5f8:	9101      	str	r1, [sp, #4]
  if (HAL_USB_USART_Available_Data_For_Write(_serial) > 0 || _blocking) {
 23fd5fa:	f7ff f9bd 	bl	23fc978 <HAL_USB_USART_Available_Data_For_Write>
 23fd5fe:	2800      	cmp	r0, #0
 23fd600:	9901      	ldr	r1, [sp, #4]
 23fd602:	dc01      	bgt.n	23fd608 <_ZN9USBSerial5writeEh+0x16>
 23fd604:	7c60      	ldrb	r0, [r4, #17]
 23fd606:	b120      	cbz	r0, 23fd612 <_ZN9USBSerial5writeEh+0x20>
    return std::max(0, (int)HAL_USB_USART_Send_Data(_serial, byte));
 23fd608:	7c20      	ldrb	r0, [r4, #16]
 23fd60a:	f7ff f9d1 	bl	23fc9b0 <HAL_USB_USART_Send_Data>
 23fd60e:	ea20 70e0 	bic.w	r0, r0, r0, asr #31
}
 23fd612:	b002      	add	sp, #8
 23fd614:	bd10      	pop	{r4, pc}

023fd616 <_ZN9USBSerial5flushEv>:
  HAL_USB_USART_Flush_Data(_serial);
 23fd616:	7c00      	ldrb	r0, [r0, #16]
 23fd618:	f7ff b9d8 	b.w	23fc9cc <HAL_USB_USART_Flush_Data>

023fd61c <_ZN9USBSerialD0Ev>:
 23fd61c:	b510      	push	{r4, lr}
 23fd61e:	4604      	mov	r4, r0
 23fd620:	2114      	movs	r1, #20
 23fd622:	f7fe fb80 	bl	23fbd26 <_ZdlPvj>
 23fd626:	4620      	mov	r0, r4
 23fd628:	bd10      	pop	{r4, pc}
	...

023fd62c <_ZN9USBSerialC1E20HAL_USB_USART_SerialRK20HAL_USB_USART_Config>:
USBSerial::USBSerial(HAL_USB_USART_Serial serial, const HAL_USB_USART_Config& conf)
 23fd62c:	b510      	push	{r4, lr}
 23fd62e:	f44f 737a 	mov.w	r3, #1000	; 0x3e8
 23fd632:	4604      	mov	r4, r0
 23fd634:	4608      	mov	r0, r1
 23fd636:	2100      	movs	r1, #0
 23fd638:	e9c4 1301 	strd	r1, r3, [r4, #4]
 23fd63c:	4b04      	ldr	r3, [pc, #16]	; (23fd650 <_ZN9USBSerialC1E20HAL_USB_USART_SerialRK20HAL_USB_USART_Config+0x24>)
  _serial = serial;
 23fd63e:	7420      	strb	r0, [r4, #16]
USBSerial::USBSerial(HAL_USB_USART_Serial serial, const HAL_USB_USART_Config& conf)
 23fd640:	6023      	str	r3, [r4, #0]
  _blocking = true;
 23fd642:	2301      	movs	r3, #1
  HAL_USB_USART_Init(_serial, &conf);
 23fd644:	4611      	mov	r1, r2
  _blocking = true;
 23fd646:	7463      	strb	r3, [r4, #17]
  HAL_USB_USART_Init(_serial, &conf);
 23fd648:	f7ff f96c 	bl	23fc924 <HAL_USB_USART_Init>
}
 23fd64c:	4620      	mov	r0, r4
 23fd64e:	bd10      	pop	{r4, pc}
 23fd650:	023ffbb8 	.word	0x023ffbb8

023fd654 <_ZN9USBSerial5beginEl>:
    HAL_USB_USART_Begin(_serial, speed, NULL);
 23fd654:	2200      	movs	r2, #0
 23fd656:	7c00      	ldrb	r0, [r0, #16]
 23fd658:	f7ff b972 	b.w	23fc940 <HAL_USB_USART_Begin>

023fd65c <_Z19acquireSerialBufferv>:
{
 23fd65c:	b510      	push	{r4, lr}
 23fd65e:	4604      	mov	r4, r0
  HAL_USB_USART_Config conf = {};
 23fd660:	2214      	movs	r2, #20
 23fd662:	2100      	movs	r1, #0
 23fd664:	f000 fab6 	bl	23fdbd4 <memset>
}
 23fd668:	4620      	mov	r0, r4
 23fd66a:	bd10      	pop	{r4, pc}

023fd66c <_Z16_fetch_usbserialv>:
{
 23fd66c:	b510      	push	{r4, lr}
 23fd66e:	b088      	sub	sp, #32
  HAL_USB_USART_Config conf = acquireSerialBuffer();
 23fd670:	a803      	add	r0, sp, #12
 23fd672:	f7ff fff3 	bl	23fd65c <_Z19acquireSerialBufferv>
	static USBSerial _usbserial(HAL_USB_USART_SERIAL, conf);
 23fd676:	4c0c      	ldr	r4, [pc, #48]	; (23fd6a8 <_Z16_fetch_usbserialv+0x3c>)
 23fd678:	e8d4 1f8f 	ldab	r1, [r4]
 23fd67c:	f011 0101 	ands.w	r1, r1, #1
 23fd680:	d10f      	bne.n	23fd6a2 <_Z16_fetch_usbserialv+0x36>
 23fd682:	4620      	mov	r0, r4
 23fd684:	9101      	str	r1, [sp, #4]
 23fd686:	f7ff fb37 	bl	23fccf8 <__cxa_guard_acquire>
 23fd68a:	9901      	ldr	r1, [sp, #4]
 23fd68c:	b148      	cbz	r0, 23fd6a2 <_Z16_fetch_usbserialv+0x36>
 23fd68e:	aa03      	add	r2, sp, #12
 23fd690:	4806      	ldr	r0, [pc, #24]	; (23fd6ac <_Z16_fetch_usbserialv+0x40>)
 23fd692:	f7ff ffcb 	bl	23fd62c <_ZN9USBSerialC1E20HAL_USB_USART_SerialRK20HAL_USB_USART_Config>
 23fd696:	4620      	mov	r0, r4
 23fd698:	f7ff fb3c 	bl	23fcd14 <__cxa_guard_release>
 23fd69c:	4804      	ldr	r0, [pc, #16]	; (23fd6b0 <_Z16_fetch_usbserialv+0x44>)
 23fd69e:	f000 fa83 	bl	23fdba8 <atexit>
	return _usbserial;
}
 23fd6a2:	4802      	ldr	r0, [pc, #8]	; (23fd6ac <_Z16_fetch_usbserialv+0x40>)
 23fd6a4:	b008      	add	sp, #32
 23fd6a6:	bd10      	pop	{r4, pc}
 23fd6a8:	1007af6c 	.word	0x1007af6c
 23fd6ac:	1007af70 	.word	0x1007af70
 23fd6b0:	023fd5b3 	.word	0x023fd5b3

023fd6b4 <_ZN5spark9WiFiClass5readyEv>:
    bool connecting(void) {
        return network_connecting(*this, 0, NULL);
    }

    bool ready(void) {
        return network_ready(*this, 0, NULL);
 23fd6b4:	2200      	movs	r2, #0
 23fd6b6:	6840      	ldr	r0, [r0, #4]
 23fd6b8:	4611      	mov	r1, r2
 23fd6ba:	f7ff b9f7 	b.w	23fcaac <network_ready>

023fd6be <_ZN5spark9WiFiClass9listeningEv>:
    uint16_t getListenTimeout(void) {
        return network_get_listen_timeout(*this, 0, NULL);
    }

    bool listening(void) {
        return network_listening(*this, 0, NULL);
 23fd6be:	2200      	movs	r2, #0
 23fd6c0:	6840      	ldr	r0, [r0, #4]
 23fd6c2:	4611      	mov	r1, r2
 23fd6c4:	f7ff ba2a 	b.w	23fcb1c <network_listening>

023fd6c8 <_ZN5spark9WiFiClass16getListenTimeoutEv>:
        return network_get_listen_timeout(*this, 0, NULL);
 23fd6c8:	2200      	movs	r2, #0
 23fd6ca:	6840      	ldr	r0, [r0, #4]
 23fd6cc:	4611      	mov	r1, r2
 23fd6ce:	f7ff ba41 	b.w	23fcb54 <network_get_listen_timeout>

023fd6d2 <_ZN5spark9WiFiClass16setListenTimeoutEt>:
        network_set_listen_timeout(*this, timeout, NULL);
 23fd6d2:	2200      	movs	r2, #0
 23fd6d4:	6840      	ldr	r0, [r0, #4]
 23fd6d6:	f7ff ba2f 	b.w	23fcb38 <network_set_listen_timeout>

023fd6da <_ZN5spark9WiFiClass6listenEb>:
        network_listen(*this, begin ? 0 : 1, NULL);
 23fd6da:	2200      	movs	r2, #0
 23fd6dc:	6840      	ldr	r0, [r0, #4]
 23fd6de:	f081 0101 	eor.w	r1, r1, #1
 23fd6e2:	f7ff ba0d 	b.w	23fcb00 <network_listen>

023fd6e6 <_ZN5spark9WiFiClass3offEv>:
        network_off(*this, 0, 0, NULL);
 23fd6e6:	2300      	movs	r3, #0
 23fd6e8:	6840      	ldr	r0, [r0, #4]
 23fd6ea:	461a      	mov	r2, r3
 23fd6ec:	4619      	mov	r1, r3
 23fd6ee:	f7ff b9f9 	b.w	23fcae4 <network_off>

023fd6f2 <_ZN5spark9WiFiClass2onEv>:
        network_on(*this, 0, 0, NULL);
 23fd6f2:	2300      	movs	r3, #0
 23fd6f4:	6840      	ldr	r0, [r0, #4]
 23fd6f6:	461a      	mov	r2, r3
 23fd6f8:	4619      	mov	r1, r3
 23fd6fa:	f7ff b9e5 	b.w	23fcac8 <network_on>

023fd6fe <_ZN5spark9WiFiClass10connectingEv>:
        return network_connecting(*this, 0, NULL);
 23fd6fe:	2200      	movs	r2, #0
 23fd700:	6840      	ldr	r0, [r0, #4]
 23fd702:	4611      	mov	r1, r2
 23fd704:	f7ff b9b6 	b.w	23fca74 <network_connecting>

023fd708 <_ZN5spark9WiFiClass10disconnectEv>:
        network_disconnect(*this, NETWORK_DISCONNECT_REASON_USER, NULL);
 23fd708:	2200      	movs	r2, #0
 23fd70a:	2102      	movs	r1, #2
 23fd70c:	6840      	ldr	r0, [r0, #4]
 23fd70e:	f7ff b9bf 	b.w	23fca90 <network_disconnect>

023fd712 <_ZN5spark9WiFiClass7connectEj>:
        network_connect(*this, flags, 0, NULL);
 23fd712:	2300      	movs	r3, #0
 23fd714:	6840      	ldr	r0, [r0, #4]
 23fd716:	461a      	mov	r2, r3
 23fd718:	f7ff b99e 	b.w	23fca58 <network_connect>

023fd71c <_GLOBAL__sub_I__ZN10WiFiSignalC2ERK21wlan_connected_info_t>:
 23fd71c:	2204      	movs	r2, #4
 23fd71e:	4b02      	ldr	r3, [pc, #8]	; (23fd728 <_GLOBAL__sub_I__ZN10WiFiSignalC2ERK21wlan_connected_info_t+0xc>)
 23fd720:	605a      	str	r2, [r3, #4]
            NetworkClass(NETWORK_INTERFACE_WIFI_STA) {
 23fd722:	4a02      	ldr	r2, [pc, #8]	; (23fd72c <_GLOBAL__sub_I__ZN10WiFiSignalC2ERK21wlan_connected_info_t+0x10>)
 23fd724:	601a      	str	r2, [r3, #0]
the same way.
*****************************************************************************/

    WiFiClass WiFi;
    // NetworkClass& Network = WiFi;
}
 23fd726:	4770      	bx	lr
 23fd728:	1007af84 	.word	0x1007af84
 23fd72c:	023ffbec 	.word	0x023ffbec

023fd730 <delay>:
    return (value - fromStart) * (toEnd - toStart) / (fromEnd - fromStart) + toStart;
}

void delay(unsigned long ms)
{
    system_delay_ms(ms, false);
 23fd730:	2100      	movs	r1, #0
 23fd732:	f7ff ba63 	b.w	23fcbfc <system_delay_ms>
	...

023fd738 <_ZZ21module_user_init_hookENUlP6_reentjmPvE_4_FUNES0_jmS1_>:

void module_user_init_hook()
{
#if HAL_PLATFORM_NEWLIB
    newlib_impure_ptr_callback([](struct _reent* r, size_t size, uint32_t version, void* ctx) -> void {
        _impure_ptr = r;
 23fd738:	4b01      	ldr	r3, [pc, #4]	; (23fd740 <_ZZ21module_user_init_hookENUlP6_reentjmPvE_4_FUNES0_jmS1_+0x8>)
 23fd73a:	6018      	str	r0, [r3, #0]
    }, nullptr);
 23fd73c:	4770      	bx	lr
 23fd73e:	bf00      	nop
 23fd740:	1007ad08 	.word	0x1007ad08

023fd744 <serialEventRun>:
{
 23fd744:	b508      	push	{r3, lr}
    if (serialEvent && Serial.available()>0)
 23fd746:	4b0f      	ldr	r3, [pc, #60]	; (23fd784 <serialEventRun+0x40>)
 23fd748:	b143      	cbz	r3, 23fd75c <serialEventRun+0x18>
 23fd74a:	f7ff ff8f 	bl	23fd66c <_Z16_fetch_usbserialv>
 23fd74e:	6803      	ldr	r3, [r0, #0]
 23fd750:	691b      	ldr	r3, [r3, #16]
 23fd752:	4798      	blx	r3
 23fd754:	2800      	cmp	r0, #0
 23fd756:	dd01      	ble.n	23fd75c <serialEventRun+0x18>
        serialEvent();
 23fd758:	e000      	b.n	23fd75c <serialEventRun+0x18>
 23fd75a:	bf00      	nop
    if (serialEvent1 && Serial1.available()>0)
 23fd75c:	4b0a      	ldr	r3, [pc, #40]	; (23fd788 <serialEventRun+0x44>)
 23fd75e:	b143      	cbz	r3, 23fd772 <serialEventRun+0x2e>
 23fd760:	f000 f990 	bl	23fda84 <_Z22__fetch_global_Serial1v>
 23fd764:	6803      	ldr	r3, [r0, #0]
 23fd766:	691b      	ldr	r3, [r3, #16]
 23fd768:	4798      	blx	r3
 23fd76a:	2800      	cmp	r0, #0
 23fd76c:	dd01      	ble.n	23fd772 <serialEventRun+0x2e>
        serialEvent1();
 23fd76e:	e000      	b.n	23fd772 <serialEventRun+0x2e>
 23fd770:	bf00      	nop
    if (serialEvent2) serialEventRun2();
 23fd772:	4b06      	ldr	r3, [pc, #24]	; (23fd78c <serialEventRun+0x48>)
 23fd774:	b10b      	cbz	r3, 23fd77a <serialEventRun+0x36>
 23fd776:	f000 f9cb 	bl	23fdb10 <_Z15serialEventRun2v>
    if (serialEvent3) serialEventRun3();
 23fd77a:	4b05      	ldr	r3, [pc, #20]	; (23fd790 <serialEventRun+0x4c>)
 23fd77c:	b10b      	cbz	r3, 23fd782 <serialEventRun+0x3e>
 23fd77e:	f000 f9fd 	bl	23fdb7c <_Z15serialEventRun3v>
}
 23fd782:	bd08      	pop	{r3, pc}
	...

023fd794 <_post_loop>:
{
 23fd794:	b508      	push	{r3, lr}
	serialEventRun();
 23fd796:	f7ff ffd5 	bl	23fd744 <serialEventRun>
		return !thread || !thread->isRunning();
	}

	static inline system_tick_t current_time()
	{
		return HAL_Timer_Get_Milli_Seconds();
 23fd79a:	f7fe fed9 	bl	23fc550 <HAL_Timer_Get_Milli_Seconds>
	/**
	 * Lifesign that the application is still working normally.
	 */
	static void checkin()
	{
		last_checkin = current_time();
 23fd79e:	4b01      	ldr	r3, [pc, #4]	; (23fd7a4 <_post_loop+0x10>)
 23fd7a0:	6018      	str	r0, [r3, #0]
}
 23fd7a2:	bd08      	pop	{r3, pc}
 23fd7a4:	1007af94 	.word	0x1007af94

023fd7a8 <_Z33system_initialize_user_backup_ramv>:
    memcpy(&link_global_retained_start, &link_global_retained_initial_values, len);
 23fd7a8:	4805      	ldr	r0, [pc, #20]	; (23fd7c0 <_Z33system_initialize_user_backup_ramv+0x18>)
 23fd7aa:	4a06      	ldr	r2, [pc, #24]	; (23fd7c4 <_Z33system_initialize_user_backup_ramv+0x1c>)
{
 23fd7ac:	b508      	push	{r3, lr}
    memcpy(&link_global_retained_start, &link_global_retained_initial_values, len);
 23fd7ae:	1a12      	subs	r2, r2, r0
 23fd7b0:	4905      	ldr	r1, [pc, #20]	; (23fd7c8 <_Z33system_initialize_user_backup_ramv+0x20>)
 23fd7b2:	f000 fa02 	bl	23fdbba <memcpy>
    __backup_sram_signature = signature;
 23fd7b6:	4b05      	ldr	r3, [pc, #20]	; (23fd7cc <_Z33system_initialize_user_backup_ramv+0x24>)
 23fd7b8:	4a05      	ldr	r2, [pc, #20]	; (23fd7d0 <_Z33system_initialize_user_backup_ramv+0x28>)
 23fd7ba:	601a      	str	r2, [r3, #0]
}
 23fd7bc:	bd08      	pop	{r3, pc}
 23fd7be:	bf00      	nop
 23fd7c0:	1007b400 	.word	0x1007b400
 23fd7c4:	1007b404 	.word	0x1007b404
 23fd7c8:	085ff04c 	.word	0x085ff04c
 23fd7cc:	1007b400 	.word	0x1007b400
 23fd7d0:	9a271c1e 	.word	0x9a271c1e

023fd7d4 <_Z27ctrl_request_custom_handlerP12ctrl_request>:
    system_ctrl_set_result(req, SYSTEM_ERROR_NOT_SUPPORTED, nullptr, nullptr, nullptr);
 23fd7d4:	2300      	movs	r3, #0
void __attribute((weak)) ctrl_request_custom_handler(ctrl_request* req) {
 23fd7d6:	b507      	push	{r0, r1, r2, lr}
    system_ctrl_set_result(req, SYSTEM_ERROR_NOT_SUPPORTED, nullptr, nullptr, nullptr);
 23fd7d8:	461a      	mov	r2, r3
 23fd7da:	f06f 0177 	mvn.w	r1, #119	; 0x77
 23fd7de:	9300      	str	r3, [sp, #0]
 23fd7e0:	f7ff fa28 	bl	23fcc34 <system_ctrl_set_result>
}
 23fd7e4:	b003      	add	sp, #12
 23fd7e6:	f85d fb04 	ldr.w	pc, [sp], #4
	...

023fd7ec <_ZL20ctrl_request_handlerP12ctrl_request>:
static void ctrl_request_handler(ctrl_request* req) {
 23fd7ec:	b507      	push	{r0, r1, r2, lr}
    switch (req->type) {
 23fd7ee:	8843      	ldrh	r3, [r0, #2]
 23fd7f0:	2b0a      	cmp	r3, #10
 23fd7f2:	d008      	beq.n	23fd806 <_ZL20ctrl_request_handlerP12ctrl_request+0x1a>
 23fd7f4:	2b50      	cmp	r3, #80	; 0x50
 23fd7f6:	d10b      	bne.n	23fd810 <_ZL20ctrl_request_handlerP12ctrl_request+0x24>
        if (log_process_ctrl_request_callback) {
 23fd7f8:	4b09      	ldr	r3, [pc, #36]	; (23fd820 <_ZL20ctrl_request_handlerP12ctrl_request+0x34>)
 23fd7fa:	681b      	ldr	r3, [r3, #0]
 23fd7fc:	b14b      	cbz	r3, 23fd812 <_ZL20ctrl_request_handlerP12ctrl_request+0x26>
}
 23fd7fe:	b003      	add	sp, #12
 23fd800:	f85d eb04 	ldr.w	lr, [sp], #4
            log_process_ctrl_request_callback(req);
 23fd804:	4718      	bx	r3
        ctrl_request_custom_handler(req);
 23fd806:	f7ff ffe5 	bl	23fd7d4 <_Z27ctrl_request_custom_handlerP12ctrl_request>
}
 23fd80a:	b003      	add	sp, #12
 23fd80c:	f85d fb04 	ldr.w	pc, [sp], #4
        system_ctrl_set_result(req, SYSTEM_ERROR_NOT_SUPPORTED, nullptr, nullptr, nullptr);
 23fd810:	2300      	movs	r3, #0
 23fd812:	461a      	mov	r2, r3
 23fd814:	f06f 0177 	mvn.w	r1, #119	; 0x77
 23fd818:	9300      	str	r3, [sp, #0]
 23fd81a:	f7ff fa0b 	bl	23fcc34 <system_ctrl_set_result>
}
 23fd81e:	e7f4      	b.n	23fd80a <_ZL20ctrl_request_handlerP12ctrl_request+0x1e>
 23fd820:	1007af90 	.word	0x1007af90

023fd824 <module_user_init_hook>:
    newlib_impure_ptr_callback([](struct _reent* r, size_t size, uint32_t version, void* ctx) -> void {
 23fd824:	2100      	movs	r1, #0
{
 23fd826:	b510      	push	{r4, lr}
    newlib_impure_ptr_callback([](struct _reent* r, size_t size, uint32_t version, void* ctx) -> void {
 23fd828:	4811      	ldr	r0, [pc, #68]	; (23fd870 <module_user_init_hook+0x4c>)
 23fd82a:	f7ff fa57 	bl	23fccdc <newlib_impure_ptr_callback>
#endif // HAL_PLATFORM_NEWLIB

#if HAL_PLATFORM_BACKUP_RAM
    backup_ram_was_valid_ = __backup_sram_signature == signature;
 23fd82e:	4b11      	ldr	r3, [pc, #68]	; (23fd874 <module_user_init_hook+0x50>)
 23fd830:	681a      	ldr	r2, [r3, #0]
 23fd832:	4b11      	ldr	r3, [pc, #68]	; (23fd878 <module_user_init_hook+0x54>)
 23fd834:	429a      	cmp	r2, r3
 23fd836:	bf0c      	ite	eq
 23fd838:	2201      	moveq	r2, #1
 23fd83a:	2200      	movne	r2, #0
 23fd83c:	4b0f      	ldr	r3, [pc, #60]	; (23fd87c <module_user_init_hook+0x58>)
 23fd83e:	701a      	strb	r2, [r3, #0]
    if (!backup_ram_was_valid_) {
 23fd840:	d001      	beq.n	23fd846 <module_user_init_hook+0x22>
        system_initialize_user_backup_ram();
 23fd842:	f7ff ffb1 	bl	23fd7a8 <_Z33system_initialize_user_backup_ramv>
    }
#endif

#if HAL_PLATFORM_RNG
    // Initialize the default stdlib PRNG using hardware RNG as a seed
    const uint32_t seed = HAL_RNG_GetRandomNumber();
 23fd846:	f7fe fe67 	bl	23fc518 <HAL_RNG_GetRandomNumber>
 23fd84a:	4604      	mov	r4, r0
    srand(seed);
 23fd84c:	f000 f9ca 	bl	23fdbe4 <srand>

    // If the user defines random_seed_from_cloud, call it with a seed value
    // generated by a hardware RNG as well.
    if (random_seed_from_cloud) {
 23fd850:	4b0b      	ldr	r3, [pc, #44]	; (23fd880 <module_user_init_hook+0x5c>)
 23fd852:	b113      	cbz	r3, 23fd85a <module_user_init_hook+0x36>
        random_seed_from_cloud(seed);
 23fd854:	4620      	mov	r0, r4
 23fd856:	e000      	b.n	23fd85a <module_user_init_hook+0x36>
 23fd858:	bf00      	nop
    }
#endif
    // Register the random_seed_from_cloud handler
    spark_set_random_seed_from_cloud_handler(&random_seed_from_cloud, nullptr);
 23fd85a:	2100      	movs	r1, #0
 23fd85c:	4808      	ldr	r0, [pc, #32]	; (23fd880 <module_user_init_hook+0x5c>)
 23fd85e:	f7ff f8ed 	bl	23fca3c <spark_set_random_seed_from_cloud_handler>

    // Register application handler for the control requests
    system_ctrl_set_app_request_handler(ctrl_request_handler, nullptr);
}
 23fd862:	e8bd 4010 	ldmia.w	sp!, {r4, lr}
    system_ctrl_set_app_request_handler(ctrl_request_handler, nullptr);
 23fd866:	2100      	movs	r1, #0
 23fd868:	4806      	ldr	r0, [pc, #24]	; (23fd884 <module_user_init_hook+0x60>)
 23fd86a:	f7ff b9d5 	b.w	23fcc18 <system_ctrl_set_app_request_handler>
 23fd86e:	bf00      	nop
 23fd870:	023fd739 	.word	0x023fd739
 23fd874:	1007b400 	.word	0x1007b400
 23fd878:	9a271c1e 	.word	0x9a271c1e
 23fd87c:	1007af8c 	.word	0x1007af8c
 23fd880:	00000000 	.word	0x00000000
 23fd884:	023fd7ed 	.word	0x023fd7ed

023fd888 <getPinMode>:
 * AN_OUTPUT = 7
 * PIN_MODE_NONE = 255
 */
PinMode getPinMode(uint16_t pin)
{
  return hal_gpio_get_mode(pin);
 23fd888:	f7fe be8c 	b.w	23fc5a4 <hal_gpio_get_mode>

023fd88c <pinAvailable>:
/*
 * @brief Perform safety check on desired pin to see if it's already
 * being used.  Return 0 if used, otherwise return 1 if available.
 */
bool pinAvailable(uint16_t pin) {
  if (pin >= TOTAL_PINS) {
 23fd88c:	281b      	cmp	r0, #27
bool pinAvailable(uint16_t pin) {
 23fd88e:	b537      	push	{r0, r1, r2, r4, r5, lr}
 23fd890:	4604      	mov	r4, r0
  if (pin >= TOTAL_PINS) {
 23fd892:	d902      	bls.n	23fd89a <pinAvailable+0xe>
    return false;
 23fd894:	2000      	movs	r0, #0
    return false; // 'pin' is used
  }
#endif

  return true; // 'pin' is available
}
 23fd896:	b003      	add	sp, #12
 23fd898:	bd30      	pop	{r4, r5, pc}
  if((pin == SCK || pin == MOSI || pin == MISO) && hal_spi_is_enabled(SPI.interface()) == true)
 23fd89a:	f1a0 030f 	sub.w	r3, r0, #15
 23fd89e:	2b02      	cmp	r3, #2
 23fd8a0:	d90b      	bls.n	23fd8ba <pinAvailable+0x2e>
  if((pin == SCL || pin == SDA) && hal_i2c_is_enabled(Wire.interface(), nullptr) == true)
 23fd8a2:	2801      	cmp	r0, #1
 23fd8a4:	d821      	bhi.n	23fd8ea <pinAvailable+0x5e>
 23fd8a6:	f000 f899 	bl	23fd9dc <_Z19__fetch_global_Wirev>
 23fd8aa:	2100      	movs	r1, #0
 23fd8ac:	7c00      	ldrb	r0, [r0, #16]
 23fd8ae:	f7fe fef7 	bl	23fc6a0 <hal_i2c_is_enabled>
  if((pin == RX || pin == TX) && hal_usart_is_enabled(Serial1.interface()) == true)
 23fd8b2:	f080 0001 	eor.w	r0, r0, #1
 23fd8b6:	b2c0      	uxtb	r0, r0
 23fd8b8:	e7ed      	b.n	23fd896 <pinAvailable+0xa>

template <hal_spi_interface_t Interface>
class SpiProxy {
public:
    static SPIClass& instance() {
        static SPIClass instance(Interface);
 23fd8ba:	4d11      	ldr	r5, [pc, #68]	; (23fd900 <pinAvailable+0x74>)
 23fd8bc:	e8d5 1f8f 	ldab	r1, [r5]
 23fd8c0:	f011 0101 	ands.w	r1, r1, #1
 23fd8c4:	d10b      	bne.n	23fd8de <pinAvailable+0x52>
 23fd8c6:	4628      	mov	r0, r5
 23fd8c8:	9101      	str	r1, [sp, #4]
 23fd8ca:	f7ff fa15 	bl	23fccf8 <__cxa_guard_acquire>
 23fd8ce:	9901      	ldr	r1, [sp, #4]
 23fd8d0:	b128      	cbz	r0, 23fd8de <pinAvailable+0x52>
 23fd8d2:	480c      	ldr	r0, [pc, #48]	; (23fd904 <pinAvailable+0x78>)
 23fd8d4:	f7ff fcc8 	bl	23fd268 <_ZN8SPIClassC1E19hal_spi_interface_t>
 23fd8d8:	4628      	mov	r0, r5
 23fd8da:	f7ff fa1b 	bl	23fcd14 <__cxa_guard_release>
  if((pin == SCK || pin == MOSI || pin == MISO) && hal_spi_is_enabled(SPI.interface()) == true)
 23fd8de:	4b09      	ldr	r3, [pc, #36]	; (23fd904 <pinAvailable+0x78>)
 23fd8e0:	7818      	ldrb	r0, [r3, #0]
 23fd8e2:	f7fe ff4d 	bl	23fc780 <hal_spi_is_enabled>
 23fd8e6:	2800      	cmp	r0, #0
 23fd8e8:	d1d4      	bne.n	23fd894 <pinAvailable+0x8>
  if((pin == RX || pin == TX) && hal_usart_is_enabled(Serial1.interface()) == true)
 23fd8ea:	3c08      	subs	r4, #8
 23fd8ec:	2c01      	cmp	r4, #1
 23fd8ee:	d805      	bhi.n	23fd8fc <pinAvailable+0x70>
 23fd8f0:	f000 f8c8 	bl	23fda84 <_Z22__fetch_global_Serial1v>
 23fd8f4:	7c00      	ldrb	r0, [r0, #16]
 23fd8f6:	f7fe ffeb 	bl	23fc8d0 <hal_usart_is_enabled>
 23fd8fa:	e7da      	b.n	23fd8b2 <pinAvailable+0x26>
  return true; // 'pin' is available
 23fd8fc:	2001      	movs	r0, #1
 23fd8fe:	e7ca      	b.n	23fd896 <pinAvailable+0xa>
 23fd900:	1007aee0 	.word	0x1007aee0
 23fd904:	1007aee4 	.word	0x1007aee4

023fd908 <pinMode>:
  if(pin >= TOTAL_PINS || setMode == PIN_MODE_NONE )
 23fd908:	281b      	cmp	r0, #27
{
 23fd90a:	b538      	push	{r3, r4, r5, lr}
 23fd90c:	4604      	mov	r4, r0
 23fd90e:	460d      	mov	r5, r1
  if(pin >= TOTAL_PINS || setMode == PIN_MODE_NONE )
 23fd910:	d80a      	bhi.n	23fd928 <pinMode+0x20>
 23fd912:	29ff      	cmp	r1, #255	; 0xff
 23fd914:	d008      	beq.n	23fd928 <pinMode+0x20>
  if( !pinAvailable(pin) ) {
 23fd916:	f7ff ffb9 	bl	23fd88c <pinAvailable>
 23fd91a:	b128      	cbz	r0, 23fd928 <pinMode+0x20>
  hal_gpio_mode(pin, setMode);
 23fd91c:	4629      	mov	r1, r5
 23fd91e:	4620      	mov	r0, r4
}
 23fd920:	e8bd 4038 	ldmia.w	sp!, {r3, r4, r5, lr}
  hal_gpio_mode(pin, setMode);
 23fd924:	f7fe be30 	b.w	23fc588 <hal_gpio_mode>
}
 23fd928:	bd38      	pop	{r3, r4, r5, pc}

023fd92a <digitalWrite>:

/*
 * @brief Sets a GPIO pin to HIGH or LOW.
 */
void digitalWrite(hal_pin_t pin, uint8_t value)
{
 23fd92a:	b538      	push	{r3, r4, r5, lr}
 23fd92c:	4604      	mov	r4, r0
 23fd92e:	460d      	mov	r5, r1
    PinMode mode = hal_gpio_get_mode(pin);
 23fd930:	f7fe fe38 	bl	23fc5a4 <hal_gpio_get_mode>
    if (mode==PIN_MODE_NONE || is_input_mode(mode))
 23fd934:	28ff      	cmp	r0, #255	; 0xff
 23fd936:	d010      	beq.n	23fd95a <digitalWrite+0x30>
            mode == INPUT_PULLDOWN ||
 23fd938:	2806      	cmp	r0, #6
 23fd93a:	d804      	bhi.n	23fd946 <digitalWrite+0x1c>
 23fd93c:	234d      	movs	r3, #77	; 0x4d
 23fd93e:	fa23 f000 	lsr.w	r0, r3, r0
 23fd942:	07c3      	lsls	r3, r0, #31
 23fd944:	d409      	bmi.n	23fd95a <digitalWrite+0x30>
        return;
  // Safety check
  if( !pinAvailable(pin) ) {
 23fd946:	4620      	mov	r0, r4
 23fd948:	f7ff ffa0 	bl	23fd88c <pinAvailable>
 23fd94c:	b128      	cbz	r0, 23fd95a <digitalWrite+0x30>
    return;
  }

  hal_gpio_write(pin, value);
 23fd94e:	4629      	mov	r1, r5
 23fd950:	4620      	mov	r0, r4
}
 23fd952:	e8bd 4038 	ldmia.w	sp!, {r3, r4, r5, lr}
  hal_gpio_write(pin, value);
 23fd956:	f7fe be33 	b.w	23fc5c0 <hal_gpio_write>
}
 23fd95a:	bd38      	pop	{r3, r4, r5, pc}

023fd95c <digitalRead>:

/*
 * @brief Reads the value of a GPIO pin. Should return either 1 (HIGH) or 0 (LOW).
 */
int32_t digitalRead(hal_pin_t pin)
{
 23fd95c:	b510      	push	{r4, lr}
 23fd95e:	4604      	mov	r4, r0
    PinMode mode = hal_gpio_get_mode(pin);
 23fd960:	f7fe fe20 	bl	23fc5a4 <hal_gpio_get_mode>
    return mode == AF_OUTPUT_PUSHPULL ||
 23fd964:	1f03      	subs	r3, r0, #4
    if (is_af_output_mode(mode))
 23fd966:	b2db      	uxtb	r3, r3
 23fd968:	2b01      	cmp	r3, #1
 23fd96a:	d908      	bls.n	23fd97e <digitalRead+0x22>
        return LOW;

    // Safety check
    if( !pinAvailable(pin) ) {
 23fd96c:	4620      	mov	r0, r4
 23fd96e:	f7ff ff8d 	bl	23fd88c <pinAvailable>
 23fd972:	b120      	cbz	r0, 23fd97e <digitalRead+0x22>
      return LOW;
    }

    return hal_gpio_read(pin);
 23fd974:	4620      	mov	r0, r4
}
 23fd976:	e8bd 4010 	ldmia.w	sp!, {r4, lr}
    return hal_gpio_read(pin);
 23fd97a:	f7fe be2f 	b.w	23fc5dc <hal_gpio_read>
}
 23fd97e:	2000      	movs	r0, #0
 23fd980:	bd10      	pop	{r4, pc}

023fd982 <analogRead>:
 * @brief Read the analog value of a pin.
 * Should return a 16-bit value, 0-65536 (0 = LOW, 65536 = HIGH)
 * Note: ADC is 12-bit. Currently it returns 0-4095
 */
int32_t analogRead(hal_pin_t pin)
{
 23fd982:	b510      	push	{r4, lr}
 23fd984:	4604      	mov	r4, r0
  }
#endif // defined(FIRST_ANALOG_PIN) && FIRST_ANALOG_PIN > 0
#endif

  // Safety check
  if( !pinAvailable(pin) ) {
 23fd986:	f7ff ff81 	bl	23fd88c <pinAvailable>
 23fd98a:	b150      	cbz	r0, 23fd9a2 <analogRead+0x20>
    return LOW;
  }

  if(hal_pin_validate_function(pin, PF_ADC)!=PF_ADC)
 23fd98c:	2103      	movs	r1, #3
 23fd98e:	4620      	mov	r0, r4
 23fd990:	f7fe fdec 	bl	23fc56c <hal_pin_validate_function>
 23fd994:	2803      	cmp	r0, #3
 23fd996:	d104      	bne.n	23fd9a2 <analogRead+0x20>
  {
    return LOW;
  }

  return hal_adc_read(pin);
 23fd998:	4620      	mov	r0, r4
}
 23fd99a:	e8bd 4010 	ldmia.w	sp!, {r4, lr}
  return hal_adc_read(pin);
 23fd99e:	f7fe be2b 	b.w	23fc5f8 <hal_adc_read>
}
 23fd9a2:	2000      	movs	r0, #0
 23fd9a4:	bd10      	pop	{r4, pc}

023fd9a6 <__tcf_0>:
}
#endif

TwoWire& __fetch_global_Wire()
{
	static TwoWire wire(HAL_I2C_INTERFACE1, acquireWireBuffer());
 23fd9a6:	4770      	bx	lr

023fd9a8 <_Z17acquireWireBufferv>:
{
 23fd9a8:	b538      	push	{r3, r4, r5, lr}
	hal_i2c_config_t config = {
 23fd9aa:	4b0a      	ldr	r3, [pc, #40]	; (23fd9d4 <_Z17acquireWireBufferv+0x2c>)
{
 23fd9ac:	4604      	mov	r4, r0
	hal_i2c_config_t config = {
 23fd9ae:	6003      	str	r3, [r0, #0]
 23fd9b0:	2301      	movs	r3, #1
		.rx_buffer = new (std::nothrow) uint8_t[i2c_buffer_size],
 23fd9b2:	4909      	ldr	r1, [pc, #36]	; (23fd9d8 <_Z17acquireWireBufferv+0x30>)
	hal_i2c_config_t config = {
 23fd9b4:	6143      	str	r3, [r0, #20]
		.rx_buffer = new (std::nothrow) uint8_t[i2c_buffer_size],
 23fd9b6:	2020      	movs	r0, #32
 23fd9b8:	f000 f8f4 	bl	23fdba4 <_ZnajRKSt9nothrow_t>
	};
 23fd9bc:	2520      	movs	r5, #32
 23fd9be:	6060      	str	r0, [r4, #4]
		.tx_buffer = new (std::nothrow) uint8_t[i2c_buffer_size],
 23fd9c0:	4905      	ldr	r1, [pc, #20]	; (23fd9d8 <_Z17acquireWireBufferv+0x30>)
 23fd9c2:	4628      	mov	r0, r5
	};
 23fd9c4:	60a5      	str	r5, [r4, #8]
		.tx_buffer = new (std::nothrow) uint8_t[i2c_buffer_size],
 23fd9c6:	f000 f8ed 	bl	23fdba4 <_ZnajRKSt9nothrow_t>
	};
 23fd9ca:	e9c4 0503 	strd	r0, r5, [r4, #12]
}
 23fd9ce:	4620      	mov	r0, r4
 23fd9d0:	bd38      	pop	{r3, r4, r5, pc}
 23fd9d2:	bf00      	nop
 23fd9d4:	00010018 	.word	0x00010018
 23fd9d8:	023ffc28 	.word	0x023ffc28

023fd9dc <_Z19__fetch_global_Wirev>:
{
 23fd9dc:	b530      	push	{r4, r5, lr}
	static TwoWire wire(HAL_I2C_INTERFACE1, acquireWireBuffer());
 23fd9de:	4d0e      	ldr	r5, [pc, #56]	; (23fda18 <_Z19__fetch_global_Wirev+0x3c>)
{
 23fd9e0:	b087      	sub	sp, #28
	static TwoWire wire(HAL_I2C_INTERFACE1, acquireWireBuffer());
 23fd9e2:	e8d5 1f8f 	ldab	r1, [r5]
 23fd9e6:	f011 0401 	ands.w	r4, r1, #1
 23fd9ea:	d111      	bne.n	23fda10 <_Z19__fetch_global_Wirev+0x34>
 23fd9ec:	4628      	mov	r0, r5
 23fd9ee:	f7ff f983 	bl	23fccf8 <__cxa_guard_acquire>
 23fd9f2:	b168      	cbz	r0, 23fda10 <_Z19__fetch_global_Wirev+0x34>
 23fd9f4:	4668      	mov	r0, sp
 23fd9f6:	f7ff ffd7 	bl	23fd9a8 <_Z17acquireWireBufferv>
 23fd9fa:	466a      	mov	r2, sp
 23fd9fc:	4621      	mov	r1, r4
 23fd9fe:	4807      	ldr	r0, [pc, #28]	; (23fda1c <_Z19__fetch_global_Wirev+0x40>)
 23fda00:	f7ff fa38 	bl	23fce74 <_ZN7TwoWireC1E19hal_i2c_interface_tRK16hal_i2c_config_t>
 23fda04:	4628      	mov	r0, r5
 23fda06:	f7ff f985 	bl	23fcd14 <__cxa_guard_release>
 23fda0a:	4805      	ldr	r0, [pc, #20]	; (23fda20 <_Z19__fetch_global_Wirev+0x44>)
 23fda0c:	f000 f8cc 	bl	23fdba8 <atexit>
	return wire;
}
 23fda10:	4802      	ldr	r0, [pc, #8]	; (23fda1c <_Z19__fetch_global_Wirev+0x40>)
 23fda12:	b007      	add	sp, #28
 23fda14:	bd30      	pop	{r4, r5, pc}
 23fda16:	bf00      	nop
 23fda18:	1007af98 	.word	0x1007af98
 23fda1c:	1007af9c 	.word	0x1007af9c
 23fda20:	023fd9a7 	.word	0x023fd9a7

023fda24 <__tcf_0>:
}
#endif

USARTSerial& __fetch_global_Serial1()
{
    static USARTSerial serial1(HAL_USART_SERIAL1, acquireSerial1Buffer());
 23fda24:	4770      	bx	lr
	...

023fda28 <_ZN12_GLOBAL__N_118defaultUsartConfigEv>:
hal_usart_buffer_config_t defaultUsartConfig() {
 23fda28:	b538      	push	{r3, r4, r5, lr}
    hal_usart_buffer_config_t config = {
 23fda2a:	2514      	movs	r5, #20
hal_usart_buffer_config_t defaultUsartConfig() {
 23fda2c:	4604      	mov	r4, r0
    hal_usart_buffer_config_t config = {
 23fda2e:	462a      	mov	r2, r5
 23fda30:	2100      	movs	r1, #0
 23fda32:	f000 f8cf 	bl	23fdbd4 <memset>
 23fda36:	8025      	strh	r5, [r4, #0]
 23fda38:	2540      	movs	r5, #64	; 0x40
        .rx_buffer = new (std::nothrow) uint8_t[bufferSize],
 23fda3a:	4907      	ldr	r1, [pc, #28]	; (23fda58 <_ZN12_GLOBAL__N_118defaultUsartConfigEv+0x30>)
 23fda3c:	4628      	mov	r0, r5
    hal_usart_buffer_config_t config = {
 23fda3e:	8125      	strh	r5, [r4, #8]
 23fda40:	8225      	strh	r5, [r4, #16]
        .rx_buffer = new (std::nothrow) uint8_t[bufferSize],
 23fda42:	f000 f8af 	bl	23fdba4 <_ZnajRKSt9nothrow_t>
        .tx_buffer = new (std::nothrow) uint8_t[bufferSize],
 23fda46:	4904      	ldr	r1, [pc, #16]	; (23fda58 <_ZN12_GLOBAL__N_118defaultUsartConfigEv+0x30>)
    };
 23fda48:	6060      	str	r0, [r4, #4]
        .tx_buffer = new (std::nothrow) uint8_t[bufferSize],
 23fda4a:	4628      	mov	r0, r5
 23fda4c:	f000 f8aa 	bl	23fdba4 <_ZnajRKSt9nothrow_t>
    };
 23fda50:	60e0      	str	r0, [r4, #12]
}
 23fda52:	4620      	mov	r0, r4
 23fda54:	bd38      	pop	{r3, r4, r5, pc}
 23fda56:	bf00      	nop
 23fda58:	023ffc28 	.word	0x023ffc28

023fda5c <__tcf_2>:
 23fda5c:	4770      	bx	lr

023fda5e <__tcf_1>:
 23fda5e:	4770      	bx	lr

023fda60 <_Z20acquireSerial1Bufferv>:
{
 23fda60:	b510      	push	{r4, lr}
 23fda62:	4604      	mov	r4, r0
    return defaultUsartConfig();
 23fda64:	f7ff ffe0 	bl	23fda28 <_ZN12_GLOBAL__N_118defaultUsartConfigEv>
}
 23fda68:	4620      	mov	r0, r4
 23fda6a:	bd10      	pop	{r4, pc}

023fda6c <_Z20acquireSerial2Bufferv>:
 23fda6c:	b510      	push	{r4, lr}
 23fda6e:	4604      	mov	r4, r0
 23fda70:	f7ff ffda 	bl	23fda28 <_ZN12_GLOBAL__N_118defaultUsartConfigEv>
 23fda74:	4620      	mov	r0, r4
 23fda76:	bd10      	pop	{r4, pc}

023fda78 <_Z20acquireSerial3Bufferv>:
 23fda78:	b510      	push	{r4, lr}
 23fda7a:	4604      	mov	r4, r0
 23fda7c:	f7ff ffd4 	bl	23fda28 <_ZN12_GLOBAL__N_118defaultUsartConfigEv>
 23fda80:	4620      	mov	r0, r4
 23fda82:	bd10      	pop	{r4, pc}

023fda84 <_Z22__fetch_global_Serial1v>:
{
 23fda84:	b530      	push	{r4, r5, lr}
    static USARTSerial serial1(HAL_USART_SERIAL1, acquireSerial1Buffer());
 23fda86:	4d0e      	ldr	r5, [pc, #56]	; (23fdac0 <_Z22__fetch_global_Serial1v+0x3c>)
{
 23fda88:	b087      	sub	sp, #28
    static USARTSerial serial1(HAL_USART_SERIAL1, acquireSerial1Buffer());
 23fda8a:	e8d5 1f8f 	ldab	r1, [r5]
 23fda8e:	f011 0401 	ands.w	r4, r1, #1
 23fda92:	d111      	bne.n	23fdab8 <_Z22__fetch_global_Serial1v+0x34>
 23fda94:	4628      	mov	r0, r5
 23fda96:	f7ff f92f 	bl	23fccf8 <__cxa_guard_acquire>
 23fda9a:	b168      	cbz	r0, 23fdab8 <_Z22__fetch_global_Serial1v+0x34>
 23fda9c:	a801      	add	r0, sp, #4
 23fda9e:	f7ff ffdf 	bl	23fda60 <_Z20acquireSerial1Bufferv>
 23fdaa2:	4621      	mov	r1, r4
 23fdaa4:	aa01      	add	r2, sp, #4
 23fdaa6:	4807      	ldr	r0, [pc, #28]	; (23fdac4 <_Z22__fetch_global_Serial1v+0x40>)
 23fdaa8:	f7ff fd6a 	bl	23fd580 <_ZN11USARTSerialC1E21hal_usart_interface_tRK25hal_usart_buffer_config_t>
 23fdaac:	4628      	mov	r0, r5
 23fdaae:	f7ff f931 	bl	23fcd14 <__cxa_guard_release>
 23fdab2:	4805      	ldr	r0, [pc, #20]	; (23fdac8 <_Z22__fetch_global_Serial1v+0x44>)
 23fdab4:	f000 f878 	bl	23fdba8 <atexit>
    return serial1;
}
 23fdab8:	4802      	ldr	r0, [pc, #8]	; (23fdac4 <_Z22__fetch_global_Serial1v+0x40>)
 23fdaba:	b007      	add	sp, #28
 23fdabc:	bd30      	pop	{r4, r5, pc}
 23fdabe:	bf00      	nop
 23fdac0:	1007afb0 	.word	0x1007afb0
 23fdac4:	1007afbc 	.word	0x1007afbc
 23fdac8:	023fda25 	.word	0x023fda25

023fdacc <_Z22__fetch_global_Serial2v>:

#if Wiring_Serial2
USARTSerial& __fetch_global_Serial2()
{
 23fdacc:	b510      	push	{r4, lr}
	static USARTSerial serial2(HAL_USART_SERIAL2, acquireSerial2Buffer());
 23fdace:	4c0d      	ldr	r4, [pc, #52]	; (23fdb04 <_Z22__fetch_global_Serial2v+0x38>)
{
 23fdad0:	b086      	sub	sp, #24
	static USARTSerial serial2(HAL_USART_SERIAL2, acquireSerial2Buffer());
 23fdad2:	e8d4 3f8f 	ldab	r3, [r4]
 23fdad6:	07db      	lsls	r3, r3, #31
 23fdad8:	d411      	bmi.n	23fdafe <_Z22__fetch_global_Serial2v+0x32>
 23fdada:	4620      	mov	r0, r4
 23fdadc:	f7ff f90c 	bl	23fccf8 <__cxa_guard_acquire>
 23fdae0:	b168      	cbz	r0, 23fdafe <_Z22__fetch_global_Serial2v+0x32>
 23fdae2:	a801      	add	r0, sp, #4
 23fdae4:	f7ff ffc2 	bl	23fda6c <_Z20acquireSerial2Bufferv>
 23fdae8:	2101      	movs	r1, #1
 23fdaea:	aa01      	add	r2, sp, #4
 23fdaec:	4806      	ldr	r0, [pc, #24]	; (23fdb08 <_Z22__fetch_global_Serial2v+0x3c>)
 23fdaee:	f7ff fd47 	bl	23fd580 <_ZN11USARTSerialC1E21hal_usart_interface_tRK25hal_usart_buffer_config_t>
 23fdaf2:	4620      	mov	r0, r4
 23fdaf4:	f7ff f90e 	bl	23fcd14 <__cxa_guard_release>
 23fdaf8:	4804      	ldr	r0, [pc, #16]	; (23fdb0c <_Z22__fetch_global_Serial2v+0x40>)
 23fdafa:	f000 f855 	bl	23fdba8 <atexit>
	return serial2;
}
 23fdafe:	4802      	ldr	r0, [pc, #8]	; (23fdb08 <_Z22__fetch_global_Serial2v+0x3c>)
 23fdb00:	b006      	add	sp, #24
 23fdb02:	bd10      	pop	{r4, pc}
 23fdb04:	1007afb4 	.word	0x1007afb4
 23fdb08:	1007afd0 	.word	0x1007afd0
 23fdb0c:	023fda5f 	.word	0x023fda5f

023fdb10 <_Z15serialEventRun2v>:

void serialEventRun2()
{
 23fdb10:	b510      	push	{r4, lr}
    __handleSerialEvent(Serial2, serialEvent2);
 23fdb12:	f7ff ffdb 	bl	23fdacc <_Z22__fetch_global_Serial2v>

inline void __handleSerialEvent(USARTSerial& serial, void (*handler)(void)) __attribute__((always_inline));

inline void __handleSerialEvent(USARTSerial& serial, void (*handler)(void))
{
    if (handler && serial.isEnabled() && serial.available()>0)
 23fdb16:	4b07      	ldr	r3, [pc, #28]	; (23fdb34 <_Z15serialEventRun2v+0x24>)
 23fdb18:	4604      	mov	r4, r0
 23fdb1a:	b153      	cbz	r3, 23fdb32 <_Z15serialEventRun2v+0x22>
 23fdb1c:	f7ff fd44 	bl	23fd5a8 <_ZN11USARTSerial9isEnabledEv>
 23fdb20:	b138      	cbz	r0, 23fdb32 <_Z15serialEventRun2v+0x22>
 23fdb22:	6823      	ldr	r3, [r4, #0]
 23fdb24:	4620      	mov	r0, r4
 23fdb26:	691b      	ldr	r3, [r3, #16]
 23fdb28:	4798      	blx	r3
 23fdb2a:	2800      	cmp	r0, #0
 23fdb2c:	dd01      	ble.n	23fdb32 <_Z15serialEventRun2v+0x22>
        handler();
 23fdb2e:	e000      	b.n	23fdb32 <_Z15serialEventRun2v+0x22>
 23fdb30:	bf00      	nop
}
 23fdb32:	bd10      	pop	{r4, pc}
 23fdb34:	00000000 	.word	0x00000000

023fdb38 <_Z22__fetch_global_Serial3v>:
#endif

#if Wiring_Serial3
USARTSerial& __fetch_global_Serial3()
{
 23fdb38:	b510      	push	{r4, lr}
	static USARTSerial serial3(HAL_USART_SERIAL3, acquireSerial3Buffer());
 23fdb3a:	4c0d      	ldr	r4, [pc, #52]	; (23fdb70 <_Z22__fetch_global_Serial3v+0x38>)
{
 23fdb3c:	b086      	sub	sp, #24
	static USARTSerial serial3(HAL_USART_SERIAL3, acquireSerial3Buffer());
 23fdb3e:	e8d4 3f8f 	ldab	r3, [r4]
 23fdb42:	07db      	lsls	r3, r3, #31
 23fdb44:	d411      	bmi.n	23fdb6a <_Z22__fetch_global_Serial3v+0x32>
 23fdb46:	4620      	mov	r0, r4
 23fdb48:	f7ff f8d6 	bl	23fccf8 <__cxa_guard_acquire>
 23fdb4c:	b168      	cbz	r0, 23fdb6a <_Z22__fetch_global_Serial3v+0x32>
 23fdb4e:	a801      	add	r0, sp, #4
 23fdb50:	f7ff ff92 	bl	23fda78 <_Z20acquireSerial3Bufferv>
 23fdb54:	2102      	movs	r1, #2
 23fdb56:	aa01      	add	r2, sp, #4
 23fdb58:	4806      	ldr	r0, [pc, #24]	; (23fdb74 <_Z22__fetch_global_Serial3v+0x3c>)
 23fdb5a:	f7ff fd11 	bl	23fd580 <_ZN11USARTSerialC1E21hal_usart_interface_tRK25hal_usart_buffer_config_t>
 23fdb5e:	4620      	mov	r0, r4
 23fdb60:	f7ff f8d8 	bl	23fcd14 <__cxa_guard_release>
 23fdb64:	4804      	ldr	r0, [pc, #16]	; (23fdb78 <_Z22__fetch_global_Serial3v+0x40>)
 23fdb66:	f000 f81f 	bl	23fdba8 <atexit>
	return serial3;
}
 23fdb6a:	4802      	ldr	r0, [pc, #8]	; (23fdb74 <_Z22__fetch_global_Serial3v+0x3c>)
 23fdb6c:	b006      	add	sp, #24
 23fdb6e:	bd10      	pop	{r4, pc}
 23fdb70:	1007afb8 	.word	0x1007afb8
 23fdb74:	1007afe4 	.word	0x1007afe4
 23fdb78:	023fda5d 	.word	0x023fda5d

023fdb7c <_Z15serialEventRun3v>:

void serialEventRun3()
{
 23fdb7c:	b510      	push	{r4, lr}
    __handleSerialEvent(Serial3, serialEvent3);
 23fdb7e:	f7ff ffdb 	bl	23fdb38 <_Z22__fetch_global_Serial3v>
    if (handler && serial.isEnabled() && serial.available()>0)
 23fdb82:	4b07      	ldr	r3, [pc, #28]	; (23fdba0 <_Z15serialEventRun3v+0x24>)
 23fdb84:	4604      	mov	r4, r0
 23fdb86:	b153      	cbz	r3, 23fdb9e <_Z15serialEventRun3v+0x22>
 23fdb88:	f7ff fd0e 	bl	23fd5a8 <_ZN11USARTSerial9isEnabledEv>
 23fdb8c:	b138      	cbz	r0, 23fdb9e <_Z15serialEventRun3v+0x22>
 23fdb8e:	6823      	ldr	r3, [r4, #0]
 23fdb90:	4620      	mov	r0, r4
 23fdb92:	691b      	ldr	r3, [r3, #16]
 23fdb94:	4798      	blx	r3
 23fdb96:	2800      	cmp	r0, #0
 23fdb98:	dd01      	ble.n	23fdb9e <_Z15serialEventRun3v+0x22>
        handler();
 23fdb9a:	e000      	b.n	23fdb9e <_Z15serialEventRun3v+0x22>
 23fdb9c:	bf00      	nop
}
 23fdb9e:	bd10      	pop	{r4, pc}
 23fdba0:	00000000 	.word	0x00000000

023fdba4 <_ZnajRKSt9nothrow_t>:
 23fdba4:	f7fe b8bd 	b.w	23fbd22 <_Znaj>

023fdba8 <atexit>:
 23fdba8:	2300      	movs	r3, #0
 23fdbaa:	4601      	mov	r1, r0
 23fdbac:	461a      	mov	r2, r3
 23fdbae:	4618      	mov	r0, r3
 23fdbb0:	f7fe b8bb 	b.w	23fbd2a <__register_exitproc>

023fdbb4 <atof>:
 23fdbb4:	2100      	movs	r1, #0
 23fdbb6:	f000 be75 	b.w	23fe8a4 <strtod>

023fdbba <memcpy>:
 23fdbba:	440a      	add	r2, r1
 23fdbbc:	1e43      	subs	r3, r0, #1
 23fdbbe:	4291      	cmp	r1, r2
 23fdbc0:	d100      	bne.n	23fdbc4 <memcpy+0xa>
 23fdbc2:	4770      	bx	lr
 23fdbc4:	b510      	push	{r4, lr}
 23fdbc6:	f811 4b01 	ldrb.w	r4, [r1], #1
 23fdbca:	4291      	cmp	r1, r2
 23fdbcc:	f803 4f01 	strb.w	r4, [r3, #1]!
 23fdbd0:	d1f9      	bne.n	23fdbc6 <memcpy+0xc>
 23fdbd2:	bd10      	pop	{r4, pc}

023fdbd4 <memset>:
 23fdbd4:	4402      	add	r2, r0
 23fdbd6:	4603      	mov	r3, r0
 23fdbd8:	4293      	cmp	r3, r2
 23fdbda:	d100      	bne.n	23fdbde <memset+0xa>
 23fdbdc:	4770      	bx	lr
 23fdbde:	f803 1b01 	strb.w	r1, [r3], #1
 23fdbe2:	e7f9      	b.n	23fdbd8 <memset+0x4>

023fdbe4 <srand>:
 23fdbe4:	b538      	push	{r3, r4, r5, lr}
 23fdbe6:	4b10      	ldr	r3, [pc, #64]	; (23fdc28 <srand+0x44>)
 23fdbe8:	4604      	mov	r4, r0
 23fdbea:	681d      	ldr	r5, [r3, #0]
 23fdbec:	6bab      	ldr	r3, [r5, #56]	; 0x38
 23fdbee:	b9b3      	cbnz	r3, 23fdc1e <srand+0x3a>
 23fdbf0:	2018      	movs	r0, #24
 23fdbf2:	f7ff f82d 	bl	23fcc50 <malloc>
 23fdbf6:	4602      	mov	r2, r0
 23fdbf8:	63a8      	str	r0, [r5, #56]	; 0x38
 23fdbfa:	b920      	cbnz	r0, 23fdc06 <srand+0x22>
 23fdbfc:	4b0b      	ldr	r3, [pc, #44]	; (23fdc2c <srand+0x48>)
 23fdbfe:	2142      	movs	r1, #66	; 0x42
 23fdc00:	480b      	ldr	r0, [pc, #44]	; (23fdc30 <srand+0x4c>)
 23fdc02:	f7ff f85d 	bl	23fccc0 <__assert_func>
 23fdc06:	490b      	ldr	r1, [pc, #44]	; (23fdc34 <srand+0x50>)
 23fdc08:	4b0b      	ldr	r3, [pc, #44]	; (23fdc38 <srand+0x54>)
 23fdc0a:	e9c0 1300 	strd	r1, r3, [r0]
 23fdc0e:	4b0b      	ldr	r3, [pc, #44]	; (23fdc3c <srand+0x58>)
 23fdc10:	2100      	movs	r1, #0
 23fdc12:	6083      	str	r3, [r0, #8]
 23fdc14:	230b      	movs	r3, #11
 23fdc16:	8183      	strh	r3, [r0, #12]
 23fdc18:	2001      	movs	r0, #1
 23fdc1a:	e9c2 0104 	strd	r0, r1, [r2, #16]
 23fdc1e:	6bab      	ldr	r3, [r5, #56]	; 0x38
 23fdc20:	2200      	movs	r2, #0
 23fdc22:	611c      	str	r4, [r3, #16]
 23fdc24:	615a      	str	r2, [r3, #20]
 23fdc26:	bd38      	pop	{r3, r4, r5, pc}
 23fdc28:	1007ad08 	.word	0x1007ad08
 23fdc2c:	023ffc29 	.word	0x023ffc29
 23fdc30:	023ffc40 	.word	0x023ffc40
 23fdc34:	abcd330e 	.word	0xabcd330e
 23fdc38:	e66d1234 	.word	0xe66d1234
 23fdc3c:	0005deec 	.word	0x0005deec

023fdc40 <strncmp>:
 23fdc40:	b510      	push	{r4, lr}
 23fdc42:	b17a      	cbz	r2, 23fdc64 <strncmp+0x24>
 23fdc44:	4603      	mov	r3, r0
 23fdc46:	3901      	subs	r1, #1
 23fdc48:	1884      	adds	r4, r0, r2
 23fdc4a:	f813 0b01 	ldrb.w	r0, [r3], #1
 23fdc4e:	f811 2f01 	ldrb.w	r2, [r1, #1]!
 23fdc52:	4290      	cmp	r0, r2
 23fdc54:	d101      	bne.n	23fdc5a <strncmp+0x1a>
 23fdc56:	42a3      	cmp	r3, r4
 23fdc58:	d101      	bne.n	23fdc5e <strncmp+0x1e>
 23fdc5a:	1a80      	subs	r0, r0, r2
 23fdc5c:	bd10      	pop	{r4, pc}
 23fdc5e:	2800      	cmp	r0, #0
 23fdc60:	d1f3      	bne.n	23fdc4a <strncmp+0xa>
 23fdc62:	e7fa      	b.n	23fdc5a <strncmp+0x1a>
 23fdc64:	4610      	mov	r0, r2
 23fdc66:	e7f9      	b.n	23fdc5c <strncmp+0x1c>

023fdc68 <sulp>:
 23fdc68:	b570      	push	{r4, r5, r6, lr}
 23fdc6a:	4604      	mov	r4, r0
 23fdc6c:	460d      	mov	r5, r1
 23fdc6e:	4616      	mov	r6, r2
 23fdc70:	ec45 4b10 	vmov	d0, r4, r5
 23fdc74:	f001 fd1a 	bl	23ff6ac <__ulp>
 23fdc78:	ec51 0b10 	vmov	r0, r1, d0
 23fdc7c:	b17e      	cbz	r6, 23fdc9e <sulp+0x36>
 23fdc7e:	f3c5 530a 	ubfx	r3, r5, #20, #11
 23fdc82:	f1c3 036b 	rsb	r3, r3, #107	; 0x6b
 23fdc86:	2b00      	cmp	r3, #0
 23fdc88:	dd09      	ble.n	23fdc9e <sulp+0x36>
 23fdc8a:	051b      	lsls	r3, r3, #20
 23fdc8c:	2400      	movs	r4, #0
 23fdc8e:	f103 557f 	add.w	r5, r3, #1069547520	; 0x3fc00000
 23fdc92:	4622      	mov	r2, r4
 23fdc94:	f505 1540 	add.w	r5, r5, #3145728	; 0x300000
 23fdc98:	462b      	mov	r3, r5
 23fdc9a:	f7fd fc95 	bl	23fb5c8 <__aeabi_dmul>
 23fdc9e:	bd70      	pop	{r4, r5, r6, pc}

023fdca0 <_strtod_l>:
 23fdca0:	e92d 4ff0 	stmdb	sp!, {r4, r5, r6, r7, r8, r9, sl, fp, lr}
 23fdca4:	461f      	mov	r7, r3
 23fdca6:	2300      	movs	r3, #0
 23fdca8:	4604      	mov	r4, r0
 23fdcaa:	4688      	mov	r8, r1
 23fdcac:	f04f 0a00 	mov.w	sl, #0
 23fdcb0:	f04f 0b00 	mov.w	fp, #0
 23fdcb4:	ed2d 8b02 	vpush	{d8}
 23fdcb8:	b09d      	sub	sp, #116	; 0x74
 23fdcba:	9318      	str	r3, [sp, #96]	; 0x60
 23fdcbc:	4b9f      	ldr	r3, [pc, #636]	; (23fdf3c <_strtod_l+0x29c>)
 23fdcbe:	9213      	str	r2, [sp, #76]	; 0x4c
 23fdcc0:	681b      	ldr	r3, [r3, #0]
 23fdcc2:	4618      	mov	r0, r3
 23fdcc4:	9305      	str	r3, [sp, #20]
 23fdcc6:	f7fd ffef 	bl	23fbca8 <strlen>
 23fdcca:	4605      	mov	r5, r0
 23fdccc:	f8cd 805c 	str.w	r8, [sp, #92]	; 0x5c
 23fdcd0:	9b17      	ldr	r3, [sp, #92]	; 0x5c
 23fdcd2:	781a      	ldrb	r2, [r3, #0]
 23fdcd4:	2a2b      	cmp	r2, #43	; 0x2b
 23fdcd6:	d04e      	beq.n	23fdd76 <_strtod_l+0xd6>
 23fdcd8:	d83b      	bhi.n	23fdd52 <_strtod_l+0xb2>
 23fdcda:	2a0d      	cmp	r2, #13
 23fdcdc:	d834      	bhi.n	23fdd48 <_strtod_l+0xa8>
 23fdcde:	2a08      	cmp	r2, #8
 23fdce0:	d834      	bhi.n	23fdd4c <_strtod_l+0xac>
 23fdce2:	2a00      	cmp	r2, #0
 23fdce4:	d03e      	beq.n	23fdd64 <_strtod_l+0xc4>
 23fdce6:	2300      	movs	r3, #0
 23fdce8:	930a      	str	r3, [sp, #40]	; 0x28
 23fdcea:	9e17      	ldr	r6, [sp, #92]	; 0x5c
 23fdcec:	7833      	ldrb	r3, [r6, #0]
 23fdcee:	2b30      	cmp	r3, #48	; 0x30
 23fdcf0:	f040 80b0 	bne.w	23fde54 <_strtod_l+0x1b4>
 23fdcf4:	7873      	ldrb	r3, [r6, #1]
 23fdcf6:	f003 03df 	and.w	r3, r3, #223	; 0xdf
 23fdcfa:	2b58      	cmp	r3, #88	; 0x58
 23fdcfc:	d168      	bne.n	23fddd0 <_strtod_l+0x130>
 23fdcfe:	9b0a      	ldr	r3, [sp, #40]	; 0x28
 23fdd00:	a917      	add	r1, sp, #92	; 0x5c
 23fdd02:	9702      	str	r7, [sp, #8]
 23fdd04:	4620      	mov	r0, r4
 23fdd06:	9301      	str	r3, [sp, #4]
 23fdd08:	ab18      	add	r3, sp, #96	; 0x60
 23fdd0a:	4a8d      	ldr	r2, [pc, #564]	; (23fdf40 <_strtod_l+0x2a0>)
 23fdd0c:	9300      	str	r3, [sp, #0]
 23fdd0e:	ab19      	add	r3, sp, #100	; 0x64
 23fdd10:	f000 fe3a 	bl	23fe988 <__gethex>
 23fdd14:	f010 0707 	ands.w	r7, r0, #7
 23fdd18:	4605      	mov	r5, r0
 23fdd1a:	d005      	beq.n	23fdd28 <_strtod_l+0x88>
 23fdd1c:	2f06      	cmp	r7, #6
 23fdd1e:	d12c      	bne.n	23fdd7a <_strtod_l+0xda>
 23fdd20:	3601      	adds	r6, #1
 23fdd22:	2300      	movs	r3, #0
 23fdd24:	9617      	str	r6, [sp, #92]	; 0x5c
 23fdd26:	930a      	str	r3, [sp, #40]	; 0x28
 23fdd28:	9b13      	ldr	r3, [sp, #76]	; 0x4c
 23fdd2a:	2b00      	cmp	r3, #0
 23fdd2c:	f040 858e 	bne.w	23fe84c <_strtod_l+0xbac>
 23fdd30:	9b0a      	ldr	r3, [sp, #40]	; 0x28
 23fdd32:	b1eb      	cbz	r3, 23fdd70 <_strtod_l+0xd0>
 23fdd34:	4652      	mov	r2, sl
 23fdd36:	f10b 4300 	add.w	r3, fp, #2147483648	; 0x80000000
 23fdd3a:	ec43 2b10 	vmov	d0, r2, r3
 23fdd3e:	b01d      	add	sp, #116	; 0x74
 23fdd40:	ecbd 8b02 	vpop	{d8}
 23fdd44:	e8bd 8ff0 	ldmia.w	sp!, {r4, r5, r6, r7, r8, r9, sl, fp, pc}
 23fdd48:	2a20      	cmp	r2, #32
 23fdd4a:	d1cc      	bne.n	23fdce6 <_strtod_l+0x46>
 23fdd4c:	3301      	adds	r3, #1
 23fdd4e:	9317      	str	r3, [sp, #92]	; 0x5c
 23fdd50:	e7be      	b.n	23fdcd0 <_strtod_l+0x30>
 23fdd52:	2a2d      	cmp	r2, #45	; 0x2d
 23fdd54:	d1c7      	bne.n	23fdce6 <_strtod_l+0x46>
 23fdd56:	2201      	movs	r2, #1
 23fdd58:	920a      	str	r2, [sp, #40]	; 0x28
 23fdd5a:	1c5a      	adds	r2, r3, #1
 23fdd5c:	9217      	str	r2, [sp, #92]	; 0x5c
 23fdd5e:	785b      	ldrb	r3, [r3, #1]
 23fdd60:	2b00      	cmp	r3, #0
 23fdd62:	d1c2      	bne.n	23fdcea <_strtod_l+0x4a>
 23fdd64:	9b13      	ldr	r3, [sp, #76]	; 0x4c
 23fdd66:	f8cd 805c 	str.w	r8, [sp, #92]	; 0x5c
 23fdd6a:	2b00      	cmp	r3, #0
 23fdd6c:	f040 856c 	bne.w	23fe848 <_strtod_l+0xba8>
 23fdd70:	4652      	mov	r2, sl
 23fdd72:	465b      	mov	r3, fp
 23fdd74:	e7e1      	b.n	23fdd3a <_strtod_l+0x9a>
 23fdd76:	2200      	movs	r2, #0
 23fdd78:	e7ee      	b.n	23fdd58 <_strtod_l+0xb8>
 23fdd7a:	9a18      	ldr	r2, [sp, #96]	; 0x60
 23fdd7c:	b13a      	cbz	r2, 23fdd8e <_strtod_l+0xee>
 23fdd7e:	2135      	movs	r1, #53	; 0x35
 23fdd80:	a81a      	add	r0, sp, #104	; 0x68
 23fdd82:	f001 fd9c 	bl	23ff8be <__copybits>
 23fdd86:	9918      	ldr	r1, [sp, #96]	; 0x60
 23fdd88:	4620      	mov	r0, r4
 23fdd8a:	f001 f957 	bl	23ff03c <_Bfree>
 23fdd8e:	3f01      	subs	r7, #1
 23fdd90:	2f04      	cmp	r7, #4
 23fdd92:	d806      	bhi.n	23fdda2 <_strtod_l+0x102>
 23fdd94:	e8df f007 	tbb	[pc, r7]
 23fdd98:	1714030a 	.word	0x1714030a
 23fdd9c:	0a          	.byte	0x0a
 23fdd9d:	00          	.byte	0x00
 23fdd9e:	e9dd ab1a 	ldrd	sl, fp, [sp, #104]	; 0x68
 23fdda2:	0728      	lsls	r0, r5, #28
 23fdda4:	d5c0      	bpl.n	23fdd28 <_strtod_l+0x88>
 23fdda6:	f04b 4b00 	orr.w	fp, fp, #2147483648	; 0x80000000
 23fddaa:	e7bd      	b.n	23fdd28 <_strtod_l+0x88>
 23fddac:	e9dd a31a 	ldrd	sl, r3, [sp, #104]	; 0x68
 23fddb0:	9a19      	ldr	r2, [sp, #100]	; 0x64
 23fddb2:	f423 1380 	bic.w	r3, r3, #1048576	; 0x100000
 23fddb6:	f202 4233 	addw	r2, r2, #1075	; 0x433
 23fddba:	ea43 5b02 	orr.w	fp, r3, r2, lsl #20
 23fddbe:	e7f0      	b.n	23fdda2 <_strtod_l+0x102>
 23fddc0:	f8df b180 	ldr.w	fp, [pc, #384]	; 23fdf44 <_strtod_l+0x2a4>
 23fddc4:	e7ed      	b.n	23fdda2 <_strtod_l+0x102>
 23fddc6:	f06f 4b00 	mvn.w	fp, #2147483648	; 0x80000000
 23fddca:	f04f 3aff 	mov.w	sl, #4294967295	; 0xffffffff
 23fddce:	e7e8      	b.n	23fdda2 <_strtod_l+0x102>
 23fddd0:	9b17      	ldr	r3, [sp, #92]	; 0x5c
 23fddd2:	1c5a      	adds	r2, r3, #1
 23fddd4:	9217      	str	r2, [sp, #92]	; 0x5c
 23fddd6:	785b      	ldrb	r3, [r3, #1]
 23fddd8:	2b30      	cmp	r3, #48	; 0x30
 23fddda:	d0f9      	beq.n	23fddd0 <_strtod_l+0x130>
 23fdddc:	2b00      	cmp	r3, #0
 23fddde:	d0a3      	beq.n	23fdd28 <_strtod_l+0x88>
 23fdde0:	2301      	movs	r3, #1
 23fdde2:	f04f 0900 	mov.w	r9, #0
 23fdde6:	9304      	str	r3, [sp, #16]
 23fdde8:	220a      	movs	r2, #10
 23fddea:	9b17      	ldr	r3, [sp, #92]	; 0x5c
 23fddec:	464f      	mov	r7, r9
 23fddee:	f8cd 901c 	str.w	r9, [sp, #28]
 23fddf2:	9308      	str	r3, [sp, #32]
 23fddf4:	9817      	ldr	r0, [sp, #92]	; 0x5c
 23fddf6:	7806      	ldrb	r6, [r0, #0]
 23fddf8:	f1a6 0330 	sub.w	r3, r6, #48	; 0x30
 23fddfc:	b2d9      	uxtb	r1, r3
 23fddfe:	2909      	cmp	r1, #9
 23fde00:	d92a      	bls.n	23fde58 <_strtod_l+0x1b8>
 23fde02:	462a      	mov	r2, r5
 23fde04:	9905      	ldr	r1, [sp, #20]
 23fde06:	f7ff ff1b 	bl	23fdc40 <strncmp>
 23fde0a:	b3a0      	cbz	r0, 23fde76 <_strtod_l+0x1d6>
 23fde0c:	2000      	movs	r0, #0
 23fde0e:	4632      	mov	r2, r6
 23fde10:	463d      	mov	r5, r7
 23fde12:	4603      	mov	r3, r0
 23fde14:	9005      	str	r0, [sp, #20]
 23fde16:	2a65      	cmp	r2, #101	; 0x65
 23fde18:	d001      	beq.n	23fde1e <_strtod_l+0x17e>
 23fde1a:	2a45      	cmp	r2, #69	; 0x45
 23fde1c:	d118      	bne.n	23fde50 <_strtod_l+0x1b0>
 23fde1e:	b91d      	cbnz	r5, 23fde28 <_strtod_l+0x188>
 23fde20:	9a04      	ldr	r2, [sp, #16]
 23fde22:	4302      	orrs	r2, r0
 23fde24:	d09e      	beq.n	23fdd64 <_strtod_l+0xc4>
 23fde26:	2500      	movs	r5, #0
 23fde28:	f8dd 805c 	ldr.w	r8, [sp, #92]	; 0x5c
 23fde2c:	f108 0201 	add.w	r2, r8, #1
 23fde30:	9217      	str	r2, [sp, #92]	; 0x5c
 23fde32:	f898 2001 	ldrb.w	r2, [r8, #1]
 23fde36:	2a2b      	cmp	r2, #43	; 0x2b
 23fde38:	d075      	beq.n	23fdf26 <_strtod_l+0x286>
 23fde3a:	2a2d      	cmp	r2, #45	; 0x2d
 23fde3c:	d07b      	beq.n	23fdf36 <_strtod_l+0x296>
 23fde3e:	f04f 0c00 	mov.w	ip, #0
 23fde42:	f1a2 0130 	sub.w	r1, r2, #48	; 0x30
 23fde46:	2909      	cmp	r1, #9
 23fde48:	f240 8082 	bls.w	23fdf50 <_strtod_l+0x2b0>
 23fde4c:	f8cd 805c 	str.w	r8, [sp, #92]	; 0x5c
 23fde50:	2600      	movs	r6, #0
 23fde52:	e09d      	b.n	23fdf90 <_strtod_l+0x2f0>
 23fde54:	2300      	movs	r3, #0
 23fde56:	e7c4      	b.n	23fdde2 <_strtod_l+0x142>
 23fde58:	2f08      	cmp	r7, #8
 23fde5a:	f100 0001 	add.w	r0, r0, #1
 23fde5e:	f107 0701 	add.w	r7, r7, #1
 23fde62:	bfd4      	ite	le
 23fde64:	9907      	ldrle	r1, [sp, #28]
 23fde66:	fb02 3909 	mlagt	r9, r2, r9, r3
 23fde6a:	9017      	str	r0, [sp, #92]	; 0x5c
 23fde6c:	bfdc      	itt	le
 23fde6e:	fb02 3301 	mlale	r3, r2, r1, r3
 23fde72:	9307      	strle	r3, [sp, #28]
 23fde74:	e7be      	b.n	23fddf4 <_strtod_l+0x154>
 23fde76:	9b17      	ldr	r3, [sp, #92]	; 0x5c
 23fde78:	195a      	adds	r2, r3, r5
 23fde7a:	9217      	str	r2, [sp, #92]	; 0x5c
 23fde7c:	5d5a      	ldrb	r2, [r3, r5]
 23fde7e:	2f00      	cmp	r7, #0
 23fde80:	d036      	beq.n	23fdef0 <_strtod_l+0x250>
 23fde82:	463d      	mov	r5, r7
 23fde84:	9005      	str	r0, [sp, #20]
 23fde86:	f1a2 0330 	sub.w	r3, r2, #48	; 0x30
 23fde8a:	2b09      	cmp	r3, #9
 23fde8c:	d912      	bls.n	23fdeb4 <_strtod_l+0x214>
 23fde8e:	2301      	movs	r3, #1
 23fde90:	e7c1      	b.n	23fde16 <_strtod_l+0x176>
 23fde92:	9b17      	ldr	r3, [sp, #92]	; 0x5c
 23fde94:	3001      	adds	r0, #1
 23fde96:	1c5a      	adds	r2, r3, #1
 23fde98:	9217      	str	r2, [sp, #92]	; 0x5c
 23fde9a:	785a      	ldrb	r2, [r3, #1]
 23fde9c:	2a30      	cmp	r2, #48	; 0x30
 23fde9e:	d0f8      	beq.n	23fde92 <_strtod_l+0x1f2>
 23fdea0:	f1a2 0331 	sub.w	r3, r2, #49	; 0x31
 23fdea4:	2b08      	cmp	r3, #8
 23fdea6:	f200 84d6 	bhi.w	23fe856 <_strtod_l+0xbb6>
 23fdeaa:	9005      	str	r0, [sp, #20]
 23fdeac:	2000      	movs	r0, #0
 23fdeae:	9b17      	ldr	r3, [sp, #92]	; 0x5c
 23fdeb0:	4605      	mov	r5, r0
 23fdeb2:	9308      	str	r3, [sp, #32]
 23fdeb4:	3a30      	subs	r2, #48	; 0x30
 23fdeb6:	f100 0301 	add.w	r3, r0, #1
 23fdeba:	d013      	beq.n	23fdee4 <_strtod_l+0x244>
 23fdebc:	9905      	ldr	r1, [sp, #20]
 23fdebe:	eb00 0e05 	add.w	lr, r0, r5
 23fdec2:	4419      	add	r1, r3
 23fdec4:	462b      	mov	r3, r5
 23fdec6:	9105      	str	r1, [sp, #20]
 23fdec8:	210a      	movs	r1, #10
 23fdeca:	4573      	cmp	r3, lr
 23fdecc:	d112      	bne.n	23fdef4 <_strtod_l+0x254>
 23fdece:	182b      	adds	r3, r5, r0
 23fded0:	3501      	adds	r5, #1
 23fded2:	2b08      	cmp	r3, #8
 23fded4:	4405      	add	r5, r0
 23fded6:	dc1c      	bgt.n	23fdf12 <_strtod_l+0x272>
 23fded8:	9907      	ldr	r1, [sp, #28]
 23fdeda:	230a      	movs	r3, #10
 23fdedc:	fb03 2301 	mla	r3, r3, r1, r2
 23fdee0:	9307      	str	r3, [sp, #28]
 23fdee2:	2300      	movs	r3, #0
 23fdee4:	9a17      	ldr	r2, [sp, #92]	; 0x5c
 23fdee6:	4618      	mov	r0, r3
 23fdee8:	1c51      	adds	r1, r2, #1
 23fdeea:	9117      	str	r1, [sp, #92]	; 0x5c
 23fdeec:	7852      	ldrb	r2, [r2, #1]
 23fdeee:	e7ca      	b.n	23fde86 <_strtod_l+0x1e6>
 23fdef0:	4638      	mov	r0, r7
 23fdef2:	e7d3      	b.n	23fde9c <_strtod_l+0x1fc>
 23fdef4:	2b08      	cmp	r3, #8
 23fdef6:	dc04      	bgt.n	23fdf02 <_strtod_l+0x262>
 23fdef8:	9e07      	ldr	r6, [sp, #28]
 23fdefa:	434e      	muls	r6, r1
 23fdefc:	9607      	str	r6, [sp, #28]
 23fdefe:	3301      	adds	r3, #1
 23fdf00:	e7e3      	b.n	23fdeca <_strtod_l+0x22a>
 23fdf02:	f103 0c01 	add.w	ip, r3, #1
 23fdf06:	f1bc 0f10 	cmp.w	ip, #16
 23fdf0a:	bfd8      	it	le
 23fdf0c:	fb01 f909 	mulle.w	r9, r1, r9
 23fdf10:	e7f5      	b.n	23fdefe <_strtod_l+0x25e>
 23fdf12:	2d10      	cmp	r5, #16
 23fdf14:	bfdc      	itt	le
 23fdf16:	230a      	movle	r3, #10
 23fdf18:	fb03 2909 	mlale	r9, r3, r9, r2
 23fdf1c:	e7e1      	b.n	23fdee2 <_strtod_l+0x242>
 23fdf1e:	2300      	movs	r3, #0
 23fdf20:	9305      	str	r3, [sp, #20]
 23fdf22:	2301      	movs	r3, #1
 23fdf24:	e77c      	b.n	23fde20 <_strtod_l+0x180>
 23fdf26:	f04f 0c00 	mov.w	ip, #0
 23fdf2a:	f108 0202 	add.w	r2, r8, #2
 23fdf2e:	9217      	str	r2, [sp, #92]	; 0x5c
 23fdf30:	f898 2002 	ldrb.w	r2, [r8, #2]
 23fdf34:	e785      	b.n	23fde42 <_strtod_l+0x1a2>
 23fdf36:	f04f 0c01 	mov.w	ip, #1
 23fdf3a:	e7f6      	b.n	23fdf2a <_strtod_l+0x28a>
 23fdf3c:	023ffe64 	.word	0x023ffe64
 23fdf40:	023ffca0 	.word	0x023ffca0
 23fdf44:	7ff00000 	.word	0x7ff00000
 23fdf48:	9a17      	ldr	r2, [sp, #92]	; 0x5c
 23fdf4a:	1c51      	adds	r1, r2, #1
 23fdf4c:	9117      	str	r1, [sp, #92]	; 0x5c
 23fdf4e:	7852      	ldrb	r2, [r2, #1]
 23fdf50:	2a30      	cmp	r2, #48	; 0x30
 23fdf52:	d0f9      	beq.n	23fdf48 <_strtod_l+0x2a8>
 23fdf54:	f1a2 0131 	sub.w	r1, r2, #49	; 0x31
 23fdf58:	2908      	cmp	r1, #8
 23fdf5a:	f63f af79 	bhi.w	23fde50 <_strtod_l+0x1b0>
 23fdf5e:	f1a2 0e30 	sub.w	lr, r2, #48	; 0x30
 23fdf62:	9a17      	ldr	r2, [sp, #92]	; 0x5c
 23fdf64:	9206      	str	r2, [sp, #24]
 23fdf66:	9a17      	ldr	r2, [sp, #92]	; 0x5c
 23fdf68:	1c51      	adds	r1, r2, #1
 23fdf6a:	9117      	str	r1, [sp, #92]	; 0x5c
 23fdf6c:	7852      	ldrb	r2, [r2, #1]
 23fdf6e:	f1a2 0630 	sub.w	r6, r2, #48	; 0x30
 23fdf72:	2e09      	cmp	r6, #9
 23fdf74:	d937      	bls.n	23fdfe6 <_strtod_l+0x346>
 23fdf76:	9e06      	ldr	r6, [sp, #24]
 23fdf78:	1b89      	subs	r1, r1, r6
 23fdf7a:	f644 661f 	movw	r6, #19999	; 0x4e1f
 23fdf7e:	2908      	cmp	r1, #8
 23fdf80:	dc02      	bgt.n	23fdf88 <_strtod_l+0x2e8>
 23fdf82:	4576      	cmp	r6, lr
 23fdf84:	bfa8      	it	ge
 23fdf86:	4676      	movge	r6, lr
 23fdf88:	f1bc 0f00 	cmp.w	ip, #0
 23fdf8c:	d000      	beq.n	23fdf90 <_strtod_l+0x2f0>
 23fdf8e:	4276      	negs	r6, r6
 23fdf90:	2d00      	cmp	r5, #0
 23fdf92:	d14d      	bne.n	23fe030 <_strtod_l+0x390>
 23fdf94:	9904      	ldr	r1, [sp, #16]
 23fdf96:	4301      	orrs	r1, r0
 23fdf98:	f47f aec6 	bne.w	23fdd28 <_strtod_l+0x88>
 23fdf9c:	2b00      	cmp	r3, #0
 23fdf9e:	f47f aee1 	bne.w	23fdd64 <_strtod_l+0xc4>
 23fdfa2:	2a69      	cmp	r2, #105	; 0x69
 23fdfa4:	d027      	beq.n	23fdff6 <_strtod_l+0x356>
 23fdfa6:	dc24      	bgt.n	23fdff2 <_strtod_l+0x352>
 23fdfa8:	2a49      	cmp	r2, #73	; 0x49
 23fdfaa:	d024      	beq.n	23fdff6 <_strtod_l+0x356>
 23fdfac:	2a4e      	cmp	r2, #78	; 0x4e
 23fdfae:	f47f aed9 	bne.w	23fdd64 <_strtod_l+0xc4>
 23fdfb2:	499f      	ldr	r1, [pc, #636]	; (23fe230 <_strtod_l+0x590>)
 23fdfb4:	a817      	add	r0, sp, #92	; 0x5c
 23fdfb6:	f000 ff3f 	bl	23fee38 <__match>
 23fdfba:	2800      	cmp	r0, #0
 23fdfbc:	f43f aed2 	beq.w	23fdd64 <_strtod_l+0xc4>
 23fdfc0:	9b17      	ldr	r3, [sp, #92]	; 0x5c
 23fdfc2:	781b      	ldrb	r3, [r3, #0]
 23fdfc4:	2b28      	cmp	r3, #40	; 0x28
 23fdfc6:	d12d      	bne.n	23fe024 <_strtod_l+0x384>
 23fdfc8:	aa1a      	add	r2, sp, #104	; 0x68
 23fdfca:	499a      	ldr	r1, [pc, #616]	; (23fe234 <_strtod_l+0x594>)
 23fdfcc:	a817      	add	r0, sp, #92	; 0x5c
 23fdfce:	f000 ff47 	bl	23fee60 <__hexnan>
 23fdfd2:	2805      	cmp	r0, #5
 23fdfd4:	d126      	bne.n	23fe024 <_strtod_l+0x384>
 23fdfd6:	9b1b      	ldr	r3, [sp, #108]	; 0x6c
 23fdfd8:	f8dd a068 	ldr.w	sl, [sp, #104]	; 0x68
 23fdfdc:	f043 4bff 	orr.w	fp, r3, #2139095040	; 0x7f800000
 23fdfe0:	f44b 0be0 	orr.w	fp, fp, #7340032	; 0x700000
 23fdfe4:	e6a0      	b.n	23fdd28 <_strtod_l+0x88>
 23fdfe6:	210a      	movs	r1, #10
 23fdfe8:	fb01 2e0e 	mla	lr, r1, lr, r2
 23fdfec:	f1ae 0e30 	sub.w	lr, lr, #48	; 0x30
 23fdff0:	e7b9      	b.n	23fdf66 <_strtod_l+0x2c6>
 23fdff2:	2a6e      	cmp	r2, #110	; 0x6e
 23fdff4:	e7db      	b.n	23fdfae <_strtod_l+0x30e>
 23fdff6:	4990      	ldr	r1, [pc, #576]	; (23fe238 <_strtod_l+0x598>)
 23fdff8:	a817      	add	r0, sp, #92	; 0x5c
 23fdffa:	f000 ff1d 	bl	23fee38 <__match>
 23fdffe:	2800      	cmp	r0, #0
 23fe000:	f43f aeb0 	beq.w	23fdd64 <_strtod_l+0xc4>
 23fe004:	9b17      	ldr	r3, [sp, #92]	; 0x5c
 23fe006:	a817      	add	r0, sp, #92	; 0x5c
 23fe008:	498c      	ldr	r1, [pc, #560]	; (23fe23c <_strtod_l+0x59c>)
 23fe00a:	3b01      	subs	r3, #1
 23fe00c:	9317      	str	r3, [sp, #92]	; 0x5c
 23fe00e:	f000 ff13 	bl	23fee38 <__match>
 23fe012:	b910      	cbnz	r0, 23fe01a <_strtod_l+0x37a>
 23fe014:	9b17      	ldr	r3, [sp, #92]	; 0x5c
 23fe016:	3301      	adds	r3, #1
 23fe018:	9317      	str	r3, [sp, #92]	; 0x5c
 23fe01a:	f8df b230 	ldr.w	fp, [pc, #560]	; 23fe24c <_strtod_l+0x5ac>
 23fe01e:	f04f 0a00 	mov.w	sl, #0
 23fe022:	e681      	b.n	23fdd28 <_strtod_l+0x88>
 23fe024:	4886      	ldr	r0, [pc, #536]	; (23fe240 <_strtod_l+0x5a0>)
 23fe026:	f001 fc9f 	bl	23ff968 <nan>
 23fe02a:	ec5b ab10 	vmov	sl, fp, d0
 23fe02e:	e67b      	b.n	23fdd28 <_strtod_l+0x88>
 23fe030:	9b05      	ldr	r3, [sp, #20]
 23fe032:	2f00      	cmp	r7, #0
 23fe034:	bf08      	it	eq
 23fe036:	462f      	moveq	r7, r5
 23fe038:	2d10      	cmp	r5, #16
 23fe03a:	9807      	ldr	r0, [sp, #28]
 23fe03c:	eba6 0303 	sub.w	r3, r6, r3
 23fe040:	46a8      	mov	r8, r5
 23fe042:	bfa8      	it	ge
 23fe044:	f04f 0810 	movge.w	r8, #16
 23fe048:	9306      	str	r3, [sp, #24]
 23fe04a:	f7fd fa43 	bl	23fb4d4 <__aeabi_ui2d>
 23fe04e:	2d09      	cmp	r5, #9
 23fe050:	4682      	mov	sl, r0
 23fe052:	468b      	mov	fp, r1
 23fe054:	dd13      	ble.n	23fe07e <_strtod_l+0x3de>
 23fe056:	4b7b      	ldr	r3, [pc, #492]	; (23fe244 <_strtod_l+0x5a4>)
 23fe058:	eb03 03c8 	add.w	r3, r3, r8, lsl #3
 23fe05c:	e953 2312 	ldrd	r2, r3, [r3, #-72]	; 0x48
 23fe060:	f7fd fab2 	bl	23fb5c8 <__aeabi_dmul>
 23fe064:	4682      	mov	sl, r0
 23fe066:	468b      	mov	fp, r1
 23fe068:	4648      	mov	r0, r9
 23fe06a:	f7fd fa33 	bl	23fb4d4 <__aeabi_ui2d>
 23fe06e:	4602      	mov	r2, r0
 23fe070:	460b      	mov	r3, r1
 23fe072:	4650      	mov	r0, sl
 23fe074:	4659      	mov	r1, fp
 23fe076:	f7fd f8f1 	bl	23fb25c <__adddf3>
 23fe07a:	4682      	mov	sl, r0
 23fe07c:	468b      	mov	fp, r1
 23fe07e:	2d0f      	cmp	r5, #15
 23fe080:	dc38      	bgt.n	23fe0f4 <_strtod_l+0x454>
 23fe082:	9b06      	ldr	r3, [sp, #24]
 23fe084:	2b00      	cmp	r3, #0
 23fe086:	f43f ae4f 	beq.w	23fdd28 <_strtod_l+0x88>
 23fe08a:	dd24      	ble.n	23fe0d6 <_strtod_l+0x436>
 23fe08c:	2b16      	cmp	r3, #22
 23fe08e:	dc0b      	bgt.n	23fe0a8 <_strtod_l+0x408>
 23fe090:	496c      	ldr	r1, [pc, #432]	; (23fe244 <_strtod_l+0x5a4>)
 23fe092:	4652      	mov	r2, sl
 23fe094:	eb01 01c3 	add.w	r1, r1, r3, lsl #3
 23fe098:	465b      	mov	r3, fp
 23fe09a:	e9d1 0100 	ldrd	r0, r1, [r1]
 23fe09e:	f7fd fa93 	bl	23fb5c8 <__aeabi_dmul>
 23fe0a2:	4682      	mov	sl, r0
 23fe0a4:	468b      	mov	fp, r1
 23fe0a6:	e63f      	b.n	23fdd28 <_strtod_l+0x88>
 23fe0a8:	f1c5 0325 	rsb	r3, r5, #37	; 0x25
 23fe0ac:	9a06      	ldr	r2, [sp, #24]
 23fe0ae:	4293      	cmp	r3, r2
 23fe0b0:	db20      	blt.n	23fe0f4 <_strtod_l+0x454>
 23fe0b2:	f1c5 050f 	rsb	r5, r5, #15
 23fe0b6:	4c63      	ldr	r4, [pc, #396]	; (23fe244 <_strtod_l+0x5a4>)
 23fe0b8:	4652      	mov	r2, sl
 23fe0ba:	465b      	mov	r3, fp
 23fe0bc:	eb04 01c5 	add.w	r1, r4, r5, lsl #3
 23fe0c0:	e9d1 0100 	ldrd	r0, r1, [r1]
 23fe0c4:	f7fd fa80 	bl	23fb5c8 <__aeabi_dmul>
 23fe0c8:	9b06      	ldr	r3, [sp, #24]
 23fe0ca:	1b5d      	subs	r5, r3, r5
 23fe0cc:	eb04 04c5 	add.w	r4, r4, r5, lsl #3
 23fe0d0:	e9d4 2300 	ldrd	r2, r3, [r4]
 23fe0d4:	e7e3      	b.n	23fe09e <_strtod_l+0x3fe>
 23fe0d6:	9b06      	ldr	r3, [sp, #24]
 23fe0d8:	3316      	adds	r3, #22
 23fe0da:	db0b      	blt.n	23fe0f4 <_strtod_l+0x454>
 23fe0dc:	9b05      	ldr	r3, [sp, #20]
 23fe0de:	4650      	mov	r0, sl
 23fe0e0:	4659      	mov	r1, fp
 23fe0e2:	1b9e      	subs	r6, r3, r6
 23fe0e4:	4b57      	ldr	r3, [pc, #348]	; (23fe244 <_strtod_l+0x5a4>)
 23fe0e6:	eb03 06c6 	add.w	r6, r3, r6, lsl #3
 23fe0ea:	e9d6 2300 	ldrd	r2, r3, [r6]
 23fe0ee:	f7fd fb95 	bl	23fb81c <__aeabi_ddiv>
 23fe0f2:	e7d6      	b.n	23fe0a2 <_strtod_l+0x402>
 23fe0f4:	eba5 0808 	sub.w	r8, r5, r8
 23fe0f8:	9b06      	ldr	r3, [sp, #24]
 23fe0fa:	4498      	add	r8, r3
 23fe0fc:	f1b8 0f00 	cmp.w	r8, #0
 23fe100:	dd74      	ble.n	23fe1ec <_strtod_l+0x54c>
 23fe102:	f018 030f 	ands.w	r3, r8, #15
 23fe106:	d00a      	beq.n	23fe11e <_strtod_l+0x47e>
 23fe108:	494e      	ldr	r1, [pc, #312]	; (23fe244 <_strtod_l+0x5a4>)
 23fe10a:	4652      	mov	r2, sl
 23fe10c:	eb01 01c3 	add.w	r1, r1, r3, lsl #3
 23fe110:	465b      	mov	r3, fp
 23fe112:	e9d1 0100 	ldrd	r0, r1, [r1]
 23fe116:	f7fd fa57 	bl	23fb5c8 <__aeabi_dmul>
 23fe11a:	4682      	mov	sl, r0
 23fe11c:	468b      	mov	fp, r1
 23fe11e:	f038 080f 	bics.w	r8, r8, #15
 23fe122:	d04f      	beq.n	23fe1c4 <_strtod_l+0x524>
 23fe124:	f5b8 7f9a 	cmp.w	r8, #308	; 0x134
 23fe128:	dd22      	ble.n	23fe170 <_strtod_l+0x4d0>
 23fe12a:	2500      	movs	r5, #0
 23fe12c:	462e      	mov	r6, r5
 23fe12e:	9507      	str	r5, [sp, #28]
 23fe130:	9505      	str	r5, [sp, #20]
 23fe132:	2322      	movs	r3, #34	; 0x22
 23fe134:	f8df b114 	ldr.w	fp, [pc, #276]	; 23fe24c <_strtod_l+0x5ac>
 23fe138:	f04f 0a00 	mov.w	sl, #0
 23fe13c:	6023      	str	r3, [r4, #0]
 23fe13e:	9b07      	ldr	r3, [sp, #28]
 23fe140:	2b00      	cmp	r3, #0
 23fe142:	f43f adf1 	beq.w	23fdd28 <_strtod_l+0x88>
 23fe146:	9918      	ldr	r1, [sp, #96]	; 0x60
 23fe148:	4620      	mov	r0, r4
 23fe14a:	f000 ff77 	bl	23ff03c <_Bfree>
 23fe14e:	9905      	ldr	r1, [sp, #20]
 23fe150:	4620      	mov	r0, r4
 23fe152:	f000 ff73 	bl	23ff03c <_Bfree>
 23fe156:	4631      	mov	r1, r6
 23fe158:	4620      	mov	r0, r4
 23fe15a:	f000 ff6f 	bl	23ff03c <_Bfree>
 23fe15e:	9907      	ldr	r1, [sp, #28]
 23fe160:	4620      	mov	r0, r4
 23fe162:	f000 ff6b 	bl	23ff03c <_Bfree>
 23fe166:	4629      	mov	r1, r5
 23fe168:	4620      	mov	r0, r4
 23fe16a:	f000 ff67 	bl	23ff03c <_Bfree>
 23fe16e:	e5db      	b.n	23fdd28 <_strtod_l+0x88>
 23fe170:	4b35      	ldr	r3, [pc, #212]	; (23fe248 <_strtod_l+0x5a8>)
 23fe172:	ea4f 1828 	mov.w	r8, r8, asr #4
 23fe176:	4650      	mov	r0, sl
 23fe178:	4659      	mov	r1, fp
 23fe17a:	9304      	str	r3, [sp, #16]
 23fe17c:	2300      	movs	r3, #0
 23fe17e:	4699      	mov	r9, r3
 23fe180:	f1b8 0f01 	cmp.w	r8, #1
 23fe184:	dc21      	bgt.n	23fe1ca <_strtod_l+0x52a>
 23fe186:	b10b      	cbz	r3, 23fe18c <_strtod_l+0x4ec>
 23fe188:	4682      	mov	sl, r0
 23fe18a:	468b      	mov	fp, r1
 23fe18c:	4b2e      	ldr	r3, [pc, #184]	; (23fe248 <_strtod_l+0x5a8>)
 23fe18e:	f1ab 7b54 	sub.w	fp, fp, #55574528	; 0x3500000
 23fe192:	4652      	mov	r2, sl
 23fe194:	eb03 09c9 	add.w	r9, r3, r9, lsl #3
 23fe198:	465b      	mov	r3, fp
 23fe19a:	e9d9 0100 	ldrd	r0, r1, [r9]
 23fe19e:	f7fd fa13 	bl	23fb5c8 <__aeabi_dmul>
 23fe1a2:	4b2a      	ldr	r3, [pc, #168]	; (23fe24c <_strtod_l+0x5ac>)
 23fe1a4:	460a      	mov	r2, r1
 23fe1a6:	4682      	mov	sl, r0
 23fe1a8:	400b      	ands	r3, r1
 23fe1aa:	4929      	ldr	r1, [pc, #164]	; (23fe250 <_strtod_l+0x5b0>)
 23fe1ac:	428b      	cmp	r3, r1
 23fe1ae:	d8bc      	bhi.n	23fe12a <_strtod_l+0x48a>
 23fe1b0:	f5a1 1180 	sub.w	r1, r1, #1048576	; 0x100000
 23fe1b4:	428b      	cmp	r3, r1
 23fe1b6:	bf86      	itte	hi
 23fe1b8:	f8df b098 	ldrhi.w	fp, [pc, #152]	; 23fe254 <_strtod_l+0x5b4>
 23fe1bc:	f04f 3aff 	movhi.w	sl, #4294967295	; 0xffffffff
 23fe1c0:	f102 7b54 	addls.w	fp, r2, #55574528	; 0x3500000
 23fe1c4:	2300      	movs	r3, #0
 23fe1c6:	9304      	str	r3, [sp, #16]
 23fe1c8:	e083      	b.n	23fe2d2 <_strtod_l+0x632>
 23fe1ca:	f018 0f01 	tst.w	r8, #1
 23fe1ce:	d005      	beq.n	23fe1dc <_strtod_l+0x53c>
 23fe1d0:	9b04      	ldr	r3, [sp, #16]
 23fe1d2:	e9d3 2300 	ldrd	r2, r3, [r3]
 23fe1d6:	f7fd f9f7 	bl	23fb5c8 <__aeabi_dmul>
 23fe1da:	2301      	movs	r3, #1
 23fe1dc:	9a04      	ldr	r2, [sp, #16]
 23fe1de:	f109 0901 	add.w	r9, r9, #1
 23fe1e2:	ea4f 0868 	mov.w	r8, r8, asr #1
 23fe1e6:	3208      	adds	r2, #8
 23fe1e8:	9204      	str	r2, [sp, #16]
 23fe1ea:	e7c9      	b.n	23fe180 <_strtod_l+0x4e0>
 23fe1ec:	d0ea      	beq.n	23fe1c4 <_strtod_l+0x524>
 23fe1ee:	f1c8 0800 	rsb	r8, r8, #0
 23fe1f2:	f018 020f 	ands.w	r2, r8, #15
 23fe1f6:	d00a      	beq.n	23fe20e <_strtod_l+0x56e>
 23fe1f8:	4b12      	ldr	r3, [pc, #72]	; (23fe244 <_strtod_l+0x5a4>)
 23fe1fa:	4650      	mov	r0, sl
 23fe1fc:	4659      	mov	r1, fp
 23fe1fe:	eb03 03c2 	add.w	r3, r3, r2, lsl #3
 23fe202:	e9d3 2300 	ldrd	r2, r3, [r3]
 23fe206:	f7fd fb09 	bl	23fb81c <__aeabi_ddiv>
 23fe20a:	4682      	mov	sl, r0
 23fe20c:	468b      	mov	fp, r1
 23fe20e:	ea5f 1828 	movs.w	r8, r8, asr #4
 23fe212:	d0d7      	beq.n	23fe1c4 <_strtod_l+0x524>
 23fe214:	f1b8 0f1f 	cmp.w	r8, #31
 23fe218:	dd1e      	ble.n	23fe258 <_strtod_l+0x5b8>
 23fe21a:	2500      	movs	r5, #0
 23fe21c:	462e      	mov	r6, r5
 23fe21e:	9507      	str	r5, [sp, #28]
 23fe220:	9505      	str	r5, [sp, #20]
 23fe222:	2322      	movs	r3, #34	; 0x22
 23fe224:	f04f 0a00 	mov.w	sl, #0
 23fe228:	f04f 0b00 	mov.w	fp, #0
 23fe22c:	6023      	str	r3, [r4, #0]
 23fe22e:	e786      	b.n	23fe13e <_strtod_l+0x49e>
 23fe230:	023ffa07 	.word	0x023ffa07
 23fe234:	023ffcb4 	.word	0x023ffcb4
 23fe238:	023ffa0b 	.word	0x023ffa0b
 23fe23c:	023ffc99 	.word	0x023ffc99
 23fe240:	023ffa05 	.word	0x023ffa05
 23fe244:	023ffef8 	.word	0x023ffef8
 23fe248:	023ffed0 	.word	0x023ffed0
 23fe24c:	7ff00000 	.word	0x7ff00000
 23fe250:	7ca00000 	.word	0x7ca00000
 23fe254:	7fefffff 	.word	0x7fefffff
 23fe258:	f018 0310 	ands.w	r3, r8, #16
 23fe25c:	4650      	mov	r0, sl
 23fe25e:	4659      	mov	r1, fp
 23fe260:	f8df 93a8 	ldr.w	r9, [pc, #936]	; 23fe60c <_strtod_l+0x96c>
 23fe264:	bf18      	it	ne
 23fe266:	236a      	movne	r3, #106	; 0x6a
 23fe268:	9304      	str	r3, [sp, #16]
 23fe26a:	2300      	movs	r3, #0
 23fe26c:	f018 0f01 	tst.w	r8, #1
 23fe270:	d004      	beq.n	23fe27c <_strtod_l+0x5dc>
 23fe272:	e9d9 2300 	ldrd	r2, r3, [r9]
 23fe276:	f7fd f9a7 	bl	23fb5c8 <__aeabi_dmul>
 23fe27a:	2301      	movs	r3, #1
 23fe27c:	ea5f 0868 	movs.w	r8, r8, asr #1
 23fe280:	f109 0908 	add.w	r9, r9, #8
 23fe284:	d1f2      	bne.n	23fe26c <_strtod_l+0x5cc>
 23fe286:	b10b      	cbz	r3, 23fe28c <_strtod_l+0x5ec>
 23fe288:	4682      	mov	sl, r0
 23fe28a:	468b      	mov	fp, r1
 23fe28c:	9b04      	ldr	r3, [sp, #16]
 23fe28e:	b1c3      	cbz	r3, 23fe2c2 <_strtod_l+0x622>
 23fe290:	f3cb 520a 	ubfx	r2, fp, #20, #11
 23fe294:	4659      	mov	r1, fp
 23fe296:	f1c2 036b 	rsb	r3, r2, #107	; 0x6b
 23fe29a:	2b00      	cmp	r3, #0
 23fe29c:	dd11      	ble.n	23fe2c2 <_strtod_l+0x622>
 23fe29e:	2b1f      	cmp	r3, #31
 23fe2a0:	f340 8121 	ble.w	23fe4e6 <_strtod_l+0x846>
 23fe2a4:	2b34      	cmp	r3, #52	; 0x34
 23fe2a6:	f04f 0a00 	mov.w	sl, #0
 23fe2aa:	bfdb      	ittet	le
 23fe2ac:	f1c2 024b 	rsble	r2, r2, #75	; 0x4b
 23fe2b0:	f04f 33ff 	movle.w	r3, #4294967295	; 0xffffffff
 23fe2b4:	f04f 7b5c 	movgt.w	fp, #57671680	; 0x3700000
 23fe2b8:	fa03 f202 	lslle.w	r2, r3, r2
 23fe2bc:	bfd8      	it	le
 23fe2be:	ea02 0b01 	andle.w	fp, r2, r1
 23fe2c2:	2200      	movs	r2, #0
 23fe2c4:	2300      	movs	r3, #0
 23fe2c6:	4650      	mov	r0, sl
 23fe2c8:	4659      	mov	r1, fp
 23fe2ca:	f7fd fbe5 	bl	23fba98 <__aeabi_dcmpeq>
 23fe2ce:	2800      	cmp	r0, #0
 23fe2d0:	d1a3      	bne.n	23fe21a <_strtod_l+0x57a>
 23fe2d2:	9b07      	ldr	r3, [sp, #28]
 23fe2d4:	463a      	mov	r2, r7
 23fe2d6:	9908      	ldr	r1, [sp, #32]
 23fe2d8:	4620      	mov	r0, r4
 23fe2da:	9300      	str	r3, [sp, #0]
 23fe2dc:	462b      	mov	r3, r5
 23fe2de:	f000 ff17 	bl	23ff110 <__s2b>
 23fe2e2:	9007      	str	r0, [sp, #28]
 23fe2e4:	2800      	cmp	r0, #0
 23fe2e6:	f43f af20 	beq.w	23fe12a <_strtod_l+0x48a>
 23fe2ea:	9b05      	ldr	r3, [sp, #20]
 23fe2ec:	2500      	movs	r5, #0
 23fe2ee:	1b9e      	subs	r6, r3, r6
 23fe2f0:	9b06      	ldr	r3, [sp, #24]
 23fe2f2:	2b00      	cmp	r3, #0
 23fe2f4:	bfb4      	ite	lt
 23fe2f6:	4633      	movlt	r3, r6
 23fe2f8:	2300      	movge	r3, #0
 23fe2fa:	462e      	mov	r6, r5
 23fe2fc:	930c      	str	r3, [sp, #48]	; 0x30
 23fe2fe:	9b06      	ldr	r3, [sp, #24]
 23fe300:	ea23 73e3 	bic.w	r3, r3, r3, asr #31
 23fe304:	9312      	str	r3, [sp, #72]	; 0x48
 23fe306:	9b07      	ldr	r3, [sp, #28]
 23fe308:	4620      	mov	r0, r4
 23fe30a:	6859      	ldr	r1, [r3, #4]
 23fe30c:	f000 fe56 	bl	23fefbc <_Balloc>
 23fe310:	9005      	str	r0, [sp, #20]
 23fe312:	2800      	cmp	r0, #0
 23fe314:	f43f af0d 	beq.w	23fe132 <_strtod_l+0x492>
 23fe318:	9b07      	ldr	r3, [sp, #28]
 23fe31a:	300c      	adds	r0, #12
 23fe31c:	691a      	ldr	r2, [r3, #16]
 23fe31e:	f103 010c 	add.w	r1, r3, #12
 23fe322:	3202      	adds	r2, #2
 23fe324:	0092      	lsls	r2, r2, #2
 23fe326:	f7ff fc48 	bl	23fdbba <memcpy>
 23fe32a:	aa1a      	add	r2, sp, #104	; 0x68
 23fe32c:	a919      	add	r1, sp, #100	; 0x64
 23fe32e:	4620      	mov	r0, r4
 23fe330:	ec4b ab10 	vmov	d0, sl, fp
 23fe334:	f001 fa34 	bl	23ff7a0 <__d2b>
 23fe338:	9018      	str	r0, [sp, #96]	; 0x60
 23fe33a:	ec4b ab18 	vmov	d8, sl, fp
 23fe33e:	2800      	cmp	r0, #0
 23fe340:	f43f aef7 	beq.w	23fe132 <_strtod_l+0x492>
 23fe344:	2101      	movs	r1, #1
 23fe346:	4620      	mov	r0, r4
 23fe348:	f000 ff7c 	bl	23ff244 <__i2b>
 23fe34c:	4606      	mov	r6, r0
 23fe34e:	2800      	cmp	r0, #0
 23fe350:	f43f aeef 	beq.w	23fe132 <_strtod_l+0x492>
 23fe354:	9b19      	ldr	r3, [sp, #100]	; 0x64
 23fe356:	9904      	ldr	r1, [sp, #16]
 23fe358:	2b00      	cmp	r3, #0
 23fe35a:	eba3 0801 	sub.w	r8, r3, r1
 23fe35e:	bfa9      	itett	ge
 23fe360:	9a0c      	ldrge	r2, [sp, #48]	; 0x30
 23fe362:	9a12      	ldrlt	r2, [sp, #72]	; 0x48
 23fe364:	eb03 0902 	addge.w	r9, r3, r2
 23fe368:	9f12      	ldrge	r7, [sp, #72]	; 0x48
 23fe36a:	bfb8      	it	lt
 23fe36c:	1ad7      	sublt	r7, r2, r3
 23fe36e:	9a1a      	ldr	r2, [sp, #104]	; 0x68
 23fe370:	4ba1      	ldr	r3, [pc, #644]	; (23fe5f8 <_strtod_l+0x958>)
 23fe372:	4490      	add	r8, r2
 23fe374:	bfb8      	it	lt
 23fe376:	f8dd 9030 	ldrlt.w	r9, [sp, #48]	; 0x30
 23fe37a:	f1c2 0236 	rsb	r2, r2, #54	; 0x36
 23fe37e:	f108 38ff 	add.w	r8, r8, #4294967295	; 0xffffffff
 23fe382:	4598      	cmp	r8, r3
 23fe384:	f280 80c3 	bge.w	23fe50e <_strtod_l+0x86e>
 23fe388:	eba3 0308 	sub.w	r3, r3, r8
 23fe38c:	2101      	movs	r1, #1
 23fe38e:	2b1f      	cmp	r3, #31
 23fe390:	eba2 0203 	sub.w	r2, r2, r3
 23fe394:	f300 80ae 	bgt.w	23fe4f4 <_strtod_l+0x854>
 23fe398:	fa01 f303 	lsl.w	r3, r1, r3
 23fe39c:	930d      	str	r3, [sp, #52]	; 0x34
 23fe39e:	2300      	movs	r3, #0
 23fe3a0:	9308      	str	r3, [sp, #32]
 23fe3a2:	eb09 0802 	add.w	r8, r9, r2
 23fe3a6:	9b04      	ldr	r3, [sp, #16]
 23fe3a8:	4417      	add	r7, r2
 23fe3aa:	45c1      	cmp	r9, r8
 23fe3ac:	441f      	add	r7, r3
 23fe3ae:	464b      	mov	r3, r9
 23fe3b0:	bfa8      	it	ge
 23fe3b2:	4643      	movge	r3, r8
 23fe3b4:	42bb      	cmp	r3, r7
 23fe3b6:	bfa8      	it	ge
 23fe3b8:	463b      	movge	r3, r7
 23fe3ba:	2b00      	cmp	r3, #0
 23fe3bc:	bfc2      	ittt	gt
 23fe3be:	eba8 0803 	subgt.w	r8, r8, r3
 23fe3c2:	1aff      	subgt	r7, r7, r3
 23fe3c4:	eba9 0903 	subgt.w	r9, r9, r3
 23fe3c8:	9b0c      	ldr	r3, [sp, #48]	; 0x30
 23fe3ca:	2b00      	cmp	r3, #0
 23fe3cc:	dd17      	ble.n	23fe3fe <_strtod_l+0x75e>
 23fe3ce:	4631      	mov	r1, r6
 23fe3d0:	461a      	mov	r2, r3
 23fe3d2:	4620      	mov	r0, r4
 23fe3d4:	f000 fff4 	bl	23ff3c0 <__pow5mult>
 23fe3d8:	4606      	mov	r6, r0
 23fe3da:	2800      	cmp	r0, #0
 23fe3dc:	f43f aea9 	beq.w	23fe132 <_strtod_l+0x492>
 23fe3e0:	4601      	mov	r1, r0
 23fe3e2:	9a18      	ldr	r2, [sp, #96]	; 0x60
 23fe3e4:	4620      	mov	r0, r4
 23fe3e6:	f000 ff43 	bl	23ff270 <__multiply>
 23fe3ea:	900b      	str	r0, [sp, #44]	; 0x2c
 23fe3ec:	2800      	cmp	r0, #0
 23fe3ee:	f43f aea0 	beq.w	23fe132 <_strtod_l+0x492>
 23fe3f2:	9918      	ldr	r1, [sp, #96]	; 0x60
 23fe3f4:	4620      	mov	r0, r4
 23fe3f6:	f000 fe21 	bl	23ff03c <_Bfree>
 23fe3fa:	9b0b      	ldr	r3, [sp, #44]	; 0x2c
 23fe3fc:	9318      	str	r3, [sp, #96]	; 0x60
 23fe3fe:	f1b8 0f00 	cmp.w	r8, #0
 23fe402:	f300 8089 	bgt.w	23fe518 <_strtod_l+0x878>
 23fe406:	9b06      	ldr	r3, [sp, #24]
 23fe408:	2b00      	cmp	r3, #0
 23fe40a:	dd08      	ble.n	23fe41e <_strtod_l+0x77e>
 23fe40c:	9a12      	ldr	r2, [sp, #72]	; 0x48
 23fe40e:	4620      	mov	r0, r4
 23fe410:	9905      	ldr	r1, [sp, #20]
 23fe412:	f000 ffd5 	bl	23ff3c0 <__pow5mult>
 23fe416:	9005      	str	r0, [sp, #20]
 23fe418:	2800      	cmp	r0, #0
 23fe41a:	f43f ae8a 	beq.w	23fe132 <_strtod_l+0x492>
 23fe41e:	2f00      	cmp	r7, #0
 23fe420:	dd08      	ble.n	23fe434 <_strtod_l+0x794>
 23fe422:	463a      	mov	r2, r7
 23fe424:	9905      	ldr	r1, [sp, #20]
 23fe426:	4620      	mov	r0, r4
 23fe428:	f001 f824 	bl	23ff474 <__lshift>
 23fe42c:	9005      	str	r0, [sp, #20]
 23fe42e:	2800      	cmp	r0, #0
 23fe430:	f43f ae7f 	beq.w	23fe132 <_strtod_l+0x492>
 23fe434:	f1b9 0f00 	cmp.w	r9, #0
 23fe438:	dd08      	ble.n	23fe44c <_strtod_l+0x7ac>
 23fe43a:	4631      	mov	r1, r6
 23fe43c:	464a      	mov	r2, r9
 23fe43e:	4620      	mov	r0, r4
 23fe440:	f001 f818 	bl	23ff474 <__lshift>
 23fe444:	4606      	mov	r6, r0
 23fe446:	2800      	cmp	r0, #0
 23fe448:	f43f ae73 	beq.w	23fe132 <_strtod_l+0x492>
 23fe44c:	9a05      	ldr	r2, [sp, #20]
 23fe44e:	4620      	mov	r0, r4
 23fe450:	9918      	ldr	r1, [sp, #96]	; 0x60
 23fe452:	f001 f89b 	bl	23ff58c <__mdiff>
 23fe456:	4605      	mov	r5, r0
 23fe458:	2800      	cmp	r0, #0
 23fe45a:	f43f ae6a 	beq.w	23fe132 <_strtod_l+0x492>
 23fe45e:	68c3      	ldr	r3, [r0, #12]
 23fe460:	4631      	mov	r1, r6
 23fe462:	930b      	str	r3, [sp, #44]	; 0x2c
 23fe464:	2300      	movs	r3, #0
 23fe466:	60c3      	str	r3, [r0, #12]
 23fe468:	f001 f874 	bl	23ff554 <__mcmp>
 23fe46c:	2800      	cmp	r0, #0
 23fe46e:	da5d      	bge.n	23fe52c <_strtod_l+0x88c>
 23fe470:	9b0b      	ldr	r3, [sp, #44]	; 0x2c
 23fe472:	ea53 030a 	orrs.w	r3, r3, sl
 23fe476:	d17f      	bne.n	23fe578 <_strtod_l+0x8d8>
 23fe478:	f3cb 0313 	ubfx	r3, fp, #0, #20
 23fe47c:	2b00      	cmp	r3, #0
 23fe47e:	d17b      	bne.n	23fe578 <_strtod_l+0x8d8>
 23fe480:	f02b 4300 	bic.w	r3, fp, #2147483648	; 0x80000000
 23fe484:	0d1b      	lsrs	r3, r3, #20
 23fe486:	051b      	lsls	r3, r3, #20
 23fe488:	f1b3 6fd6 	cmp.w	r3, #112197632	; 0x6b00000
 23fe48c:	d974      	bls.n	23fe578 <_strtod_l+0x8d8>
 23fe48e:	696b      	ldr	r3, [r5, #20]
 23fe490:	b913      	cbnz	r3, 23fe498 <_strtod_l+0x7f8>
 23fe492:	692b      	ldr	r3, [r5, #16]
 23fe494:	2b01      	cmp	r3, #1
 23fe496:	dd6f      	ble.n	23fe578 <_strtod_l+0x8d8>
 23fe498:	4629      	mov	r1, r5
 23fe49a:	2201      	movs	r2, #1
 23fe49c:	4620      	mov	r0, r4
 23fe49e:	f000 ffe9 	bl	23ff474 <__lshift>
 23fe4a2:	4631      	mov	r1, r6
 23fe4a4:	4605      	mov	r5, r0
 23fe4a6:	f001 f855 	bl	23ff554 <__mcmp>
 23fe4aa:	2800      	cmp	r0, #0
 23fe4ac:	dd64      	ble.n	23fe578 <_strtod_l+0x8d8>
 23fe4ae:	9904      	ldr	r1, [sp, #16]
 23fe4b0:	465b      	mov	r3, fp
 23fe4b2:	4a52      	ldr	r2, [pc, #328]	; (23fe5fc <_strtod_l+0x95c>)
 23fe4b4:	2900      	cmp	r1, #0
 23fe4b6:	d07f      	beq.n	23fe5b8 <_strtod_l+0x918>
 23fe4b8:	ea02 010b 	and.w	r1, r2, fp
 23fe4bc:	f1b1 6fd6 	cmp.w	r1, #112197632	; 0x6b00000
 23fe4c0:	dc7a      	bgt.n	23fe5b8 <_strtod_l+0x918>
 23fe4c2:	f1b1 7f5c 	cmp.w	r1, #57671680	; 0x3700000
 23fe4c6:	f77f aeac 	ble.w	23fe222 <_strtod_l+0x582>
 23fe4ca:	4b4d      	ldr	r3, [pc, #308]	; (23fe600 <_strtod_l+0x960>)
 23fe4cc:	4650      	mov	r0, sl
 23fe4ce:	4659      	mov	r1, fp
 23fe4d0:	2200      	movs	r2, #0
 23fe4d2:	f7fd f879 	bl	23fb5c8 <__aeabi_dmul>
 23fe4d6:	460b      	mov	r3, r1
 23fe4d8:	4682      	mov	sl, r0
 23fe4da:	468b      	mov	fp, r1
 23fe4dc:	4303      	orrs	r3, r0
 23fe4de:	bf04      	itt	eq
 23fe4e0:	2322      	moveq	r3, #34	; 0x22
 23fe4e2:	6023      	streq	r3, [r4, #0]
 23fe4e4:	e62f      	b.n	23fe146 <_strtod_l+0x4a6>
 23fe4e6:	f04f 32ff 	mov.w	r2, #4294967295	; 0xffffffff
 23fe4ea:	fa02 f303 	lsl.w	r3, r2, r3
 23fe4ee:	ea03 0a0a 	and.w	sl, r3, sl
 23fe4f2:	e6e6      	b.n	23fe2c2 <_strtod_l+0x622>
 23fe4f4:	f1c8 487f 	rsb	r8, r8, #4278190080	; 0xff000000
 23fe4f8:	910d      	str	r1, [sp, #52]	; 0x34
 23fe4fa:	f508 087f 	add.w	r8, r8, #16711680	; 0xff0000
 23fe4fe:	f508 487b 	add.w	r8, r8, #64256	; 0xfb00
 23fe502:	f108 08e2 	add.w	r8, r8, #226	; 0xe2
 23fe506:	fa01 f308 	lsl.w	r3, r1, r8
 23fe50a:	9308      	str	r3, [sp, #32]
 23fe50c:	e749      	b.n	23fe3a2 <_strtod_l+0x702>
 23fe50e:	2300      	movs	r3, #0
 23fe510:	9308      	str	r3, [sp, #32]
 23fe512:	2301      	movs	r3, #1
 23fe514:	930d      	str	r3, [sp, #52]	; 0x34
 23fe516:	e744      	b.n	23fe3a2 <_strtod_l+0x702>
 23fe518:	4642      	mov	r2, r8
 23fe51a:	9918      	ldr	r1, [sp, #96]	; 0x60
 23fe51c:	4620      	mov	r0, r4
 23fe51e:	f000 ffa9 	bl	23ff474 <__lshift>
 23fe522:	9018      	str	r0, [sp, #96]	; 0x60
 23fe524:	2800      	cmp	r0, #0
 23fe526:	f47f af6e 	bne.w	23fe406 <_strtod_l+0x766>
 23fe52a:	e602      	b.n	23fe132 <_strtod_l+0x492>
 23fe52c:	465f      	mov	r7, fp
 23fe52e:	d16f      	bne.n	23fe610 <_strtod_l+0x970>
 23fe530:	9a0b      	ldr	r2, [sp, #44]	; 0x2c
 23fe532:	f3cb 0313 	ubfx	r3, fp, #0, #20
 23fe536:	b342      	cbz	r2, 23fe58a <_strtod_l+0x8ea>
 23fe538:	4a32      	ldr	r2, [pc, #200]	; (23fe604 <_strtod_l+0x964>)
 23fe53a:	4293      	cmp	r3, r2
 23fe53c:	d128      	bne.n	23fe590 <_strtod_l+0x8f0>
 23fe53e:	9b04      	ldr	r3, [sp, #16]
 23fe540:	4651      	mov	r1, sl
 23fe542:	b1eb      	cbz	r3, 23fe580 <_strtod_l+0x8e0>
 23fe544:	4b2d      	ldr	r3, [pc, #180]	; (23fe5fc <_strtod_l+0x95c>)
 23fe546:	f04f 32ff 	mov.w	r2, #4294967295	; 0xffffffff
 23fe54a:	403b      	ands	r3, r7
 23fe54c:	f1b3 6fd4 	cmp.w	r3, #111149056	; 0x6a00000
 23fe550:	d819      	bhi.n	23fe586 <_strtod_l+0x8e6>
 23fe552:	0d1b      	lsrs	r3, r3, #20
 23fe554:	f1c3 036b 	rsb	r3, r3, #107	; 0x6b
 23fe558:	fa02 f303 	lsl.w	r3, r2, r3
 23fe55c:	4299      	cmp	r1, r3
 23fe55e:	d117      	bne.n	23fe590 <_strtod_l+0x8f0>
 23fe560:	4b29      	ldr	r3, [pc, #164]	; (23fe608 <_strtod_l+0x968>)
 23fe562:	429f      	cmp	r7, r3
 23fe564:	d102      	bne.n	23fe56c <_strtod_l+0x8cc>
 23fe566:	3101      	adds	r1, #1
 23fe568:	f43f ade3 	beq.w	23fe132 <_strtod_l+0x492>
 23fe56c:	4b23      	ldr	r3, [pc, #140]	; (23fe5fc <_strtod_l+0x95c>)
 23fe56e:	f04f 0a00 	mov.w	sl, #0
 23fe572:	403b      	ands	r3, r7
 23fe574:	f503 1b80 	add.w	fp, r3, #1048576	; 0x100000
 23fe578:	9b04      	ldr	r3, [sp, #16]
 23fe57a:	2b00      	cmp	r3, #0
 23fe57c:	d1a5      	bne.n	23fe4ca <_strtod_l+0x82a>
 23fe57e:	e5e2      	b.n	23fe146 <_strtod_l+0x4a6>
 23fe580:	f04f 33ff 	mov.w	r3, #4294967295	; 0xffffffff
 23fe584:	e7ea      	b.n	23fe55c <_strtod_l+0x8bc>
 23fe586:	4613      	mov	r3, r2
 23fe588:	e7e8      	b.n	23fe55c <_strtod_l+0x8bc>
 23fe58a:	ea53 030a 	orrs.w	r3, r3, sl
 23fe58e:	d08e      	beq.n	23fe4ae <_strtod_l+0x80e>
 23fe590:	9b08      	ldr	r3, [sp, #32]
 23fe592:	b1db      	cbz	r3, 23fe5cc <_strtod_l+0x92c>
 23fe594:	423b      	tst	r3, r7
 23fe596:	d0ef      	beq.n	23fe578 <_strtod_l+0x8d8>
 23fe598:	9b0b      	ldr	r3, [sp, #44]	; 0x2c
 23fe59a:	4650      	mov	r0, sl
 23fe59c:	9a04      	ldr	r2, [sp, #16]
 23fe59e:	4659      	mov	r1, fp
 23fe5a0:	b1c3      	cbz	r3, 23fe5d4 <_strtod_l+0x934>
 23fe5a2:	f7ff fb61 	bl	23fdc68 <sulp>
 23fe5a6:	4602      	mov	r2, r0
 23fe5a8:	460b      	mov	r3, r1
 23fe5aa:	ec51 0b18 	vmov	r0, r1, d8
 23fe5ae:	f7fc fe55 	bl	23fb25c <__adddf3>
 23fe5b2:	4682      	mov	sl, r0
 23fe5b4:	468b      	mov	fp, r1
 23fe5b6:	e7df      	b.n	23fe578 <_strtod_l+0x8d8>
 23fe5b8:	4013      	ands	r3, r2
 23fe5ba:	f04f 3aff 	mov.w	sl, #4294967295	; 0xffffffff
 23fe5be:	f5a3 1380 	sub.w	r3, r3, #1048576	; 0x100000
 23fe5c2:	ea6f 5b13 	mvn.w	fp, r3, lsr #20
 23fe5c6:	ea6f 5b0b 	mvn.w	fp, fp, lsl #20
 23fe5ca:	e7d5      	b.n	23fe578 <_strtod_l+0x8d8>
 23fe5cc:	9b0d      	ldr	r3, [sp, #52]	; 0x34
 23fe5ce:	ea13 0f0a 	tst.w	r3, sl
 23fe5d2:	e7e0      	b.n	23fe596 <_strtod_l+0x8f6>
 23fe5d4:	f7ff fb48 	bl	23fdc68 <sulp>
 23fe5d8:	4602      	mov	r2, r0
 23fe5da:	460b      	mov	r3, r1
 23fe5dc:	ec51 0b18 	vmov	r0, r1, d8
 23fe5e0:	f7fc fe3a 	bl	23fb258 <__aeabi_dsub>
 23fe5e4:	2200      	movs	r2, #0
 23fe5e6:	2300      	movs	r3, #0
 23fe5e8:	4682      	mov	sl, r0
 23fe5ea:	468b      	mov	fp, r1
 23fe5ec:	f7fd fa54 	bl	23fba98 <__aeabi_dcmpeq>
 23fe5f0:	2800      	cmp	r0, #0
 23fe5f2:	d0c1      	beq.n	23fe578 <_strtod_l+0x8d8>
 23fe5f4:	e615      	b.n	23fe222 <_strtod_l+0x582>
 23fe5f6:	bf00      	nop
 23fe5f8:	fffffc02 	.word	0xfffffc02
 23fe5fc:	7ff00000 	.word	0x7ff00000
 23fe600:	39500000 	.word	0x39500000
 23fe604:	000fffff 	.word	0x000fffff
 23fe608:	7fefffff 	.word	0x7fefffff
 23fe60c:	023ffcc8 	.word	0x023ffcc8
 23fe610:	4631      	mov	r1, r6
 23fe612:	4628      	mov	r0, r5
 23fe614:	f001 f920 	bl	23ff858 <__ratio>
 23fe618:	2200      	movs	r2, #0
 23fe61a:	f04f 4380 	mov.w	r3, #1073741824	; 0x40000000
 23fe61e:	ee10 0a10 	vmov	r0, s0
 23fe622:	ec59 8b10 	vmov	r8, r9, d0
 23fe626:	4649      	mov	r1, r9
 23fe628:	f7fd fa4a 	bl	23fbac0 <__aeabi_dcmple>
 23fe62c:	2800      	cmp	r0, #0
 23fe62e:	d07a      	beq.n	23fe726 <_strtod_l+0xa86>
 23fe630:	9b0b      	ldr	r3, [sp, #44]	; 0x2c
 23fe632:	2b00      	cmp	r3, #0
 23fe634:	d04a      	beq.n	23fe6cc <_strtod_l+0xa2c>
 23fe636:	2200      	movs	r2, #0
 23fe638:	4b93      	ldr	r3, [pc, #588]	; (23fe888 <_strtod_l+0xbe8>)
 23fe63a:	f04f 0800 	mov.w	r8, #0
 23fe63e:	f8df 9248 	ldr.w	r9, [pc, #584]	; 23fe888 <_strtod_l+0xbe8>
 23fe642:	e9cd 2308 	strd	r2, r3, [sp, #32]
 23fe646:	4b91      	ldr	r3, [pc, #580]	; (23fe88c <_strtod_l+0xbec>)
 23fe648:	403b      	ands	r3, r7
 23fe64a:	930d      	str	r3, [sp, #52]	; 0x34
 23fe64c:	9a0d      	ldr	r2, [sp, #52]	; 0x34
 23fe64e:	4b90      	ldr	r3, [pc, #576]	; (23fe890 <_strtod_l+0xbf0>)
 23fe650:	429a      	cmp	r2, r3
 23fe652:	f040 80b0 	bne.w	23fe7b6 <_strtod_l+0xb16>
 23fe656:	f1a7 7b54 	sub.w	fp, r7, #55574528	; 0x3500000
 23fe65a:	e9dd 0108 	ldrd	r0, r1, [sp, #32]
 23fe65e:	ec4b ab10 	vmov	d0, sl, fp
 23fe662:	e9cd 0108 	strd	r0, r1, [sp, #32]
 23fe666:	f001 f821 	bl	23ff6ac <__ulp>
 23fe66a:	e9dd 0108 	ldrd	r0, r1, [sp, #32]
 23fe66e:	ec53 2b10 	vmov	r2, r3, d0
 23fe672:	f7fc ffa9 	bl	23fb5c8 <__aeabi_dmul>
 23fe676:	4652      	mov	r2, sl
 23fe678:	465b      	mov	r3, fp
 23fe67a:	f7fc fdef 	bl	23fb25c <__adddf3>
 23fe67e:	460b      	mov	r3, r1
 23fe680:	4982      	ldr	r1, [pc, #520]	; (23fe88c <_strtod_l+0xbec>)
 23fe682:	4682      	mov	sl, r0
 23fe684:	4a83      	ldr	r2, [pc, #524]	; (23fe894 <_strtod_l+0xbf4>)
 23fe686:	4019      	ands	r1, r3
 23fe688:	4291      	cmp	r1, r2
 23fe68a:	d960      	bls.n	23fe74e <_strtod_l+0xaae>
 23fe68c:	ee18 3a90 	vmov	r3, s17
 23fe690:	f102 7254 	add.w	r2, r2, #55574528	; 0x3500000
 23fe694:	4293      	cmp	r3, r2
 23fe696:	d104      	bne.n	23fe6a2 <_strtod_l+0xa02>
 23fe698:	ee18 3a10 	vmov	r3, s16
 23fe69c:	3301      	adds	r3, #1
 23fe69e:	f43f ad48 	beq.w	23fe132 <_strtod_l+0x492>
 23fe6a2:	f8df b1fc 	ldr.w	fp, [pc, #508]	; 23fe8a0 <_strtod_l+0xc00>
 23fe6a6:	f04f 3aff 	mov.w	sl, #4294967295	; 0xffffffff
 23fe6aa:	9918      	ldr	r1, [sp, #96]	; 0x60
 23fe6ac:	4620      	mov	r0, r4
 23fe6ae:	f000 fcc5 	bl	23ff03c <_Bfree>
 23fe6b2:	9905      	ldr	r1, [sp, #20]
 23fe6b4:	4620      	mov	r0, r4
 23fe6b6:	f000 fcc1 	bl	23ff03c <_Bfree>
 23fe6ba:	4631      	mov	r1, r6
 23fe6bc:	4620      	mov	r0, r4
 23fe6be:	f000 fcbd 	bl	23ff03c <_Bfree>
 23fe6c2:	4629      	mov	r1, r5
 23fe6c4:	4620      	mov	r0, r4
 23fe6c6:	f000 fcb9 	bl	23ff03c <_Bfree>
 23fe6ca:	e61c      	b.n	23fe306 <_strtod_l+0x666>
 23fe6cc:	f1ba 0f00 	cmp.w	sl, #0
 23fe6d0:	d11b      	bne.n	23fe70a <_strtod_l+0xa6a>
 23fe6d2:	f3cb 0313 	ubfx	r3, fp, #0, #20
 23fe6d6:	b9f3      	cbnz	r3, 23fe716 <_strtod_l+0xa76>
 23fe6d8:	2200      	movs	r2, #0
 23fe6da:	4b6b      	ldr	r3, [pc, #428]	; (23fe888 <_strtod_l+0xbe8>)
 23fe6dc:	4640      	mov	r0, r8
 23fe6de:	4649      	mov	r1, r9
 23fe6e0:	f7fd f9e4 	bl	23fbaac <__aeabi_dcmplt>
 23fe6e4:	b9d0      	cbnz	r0, 23fe71c <_strtod_l+0xa7c>
 23fe6e6:	4640      	mov	r0, r8
 23fe6e8:	4649      	mov	r1, r9
 23fe6ea:	2200      	movs	r2, #0
 23fe6ec:	4b6a      	ldr	r3, [pc, #424]	; (23fe898 <_strtod_l+0xbf8>)
 23fe6ee:	f7fc ff6b 	bl	23fb5c8 <__aeabi_dmul>
 23fe6f2:	4680      	mov	r8, r0
 23fe6f4:	4689      	mov	r9, r1
 23fe6f6:	f109 4300 	add.w	r3, r9, #2147483648	; 0x80000000
 23fe6fa:	f8cd 8050 	str.w	r8, [sp, #80]	; 0x50
 23fe6fe:	9315      	str	r3, [sp, #84]	; 0x54
 23fe700:	e9dd 2314 	ldrd	r2, r3, [sp, #80]	; 0x50
 23fe704:	e9cd 2308 	strd	r2, r3, [sp, #32]
 23fe708:	e79d      	b.n	23fe646 <_strtod_l+0x9a6>
 23fe70a:	f1ba 0f01 	cmp.w	sl, #1
 23fe70e:	d102      	bne.n	23fe716 <_strtod_l+0xa76>
 23fe710:	2f00      	cmp	r7, #0
 23fe712:	f43f ad86 	beq.w	23fe222 <_strtod_l+0x582>
 23fe716:	2200      	movs	r2, #0
 23fe718:	4b60      	ldr	r3, [pc, #384]	; (23fe89c <_strtod_l+0xbfc>)
 23fe71a:	e78e      	b.n	23fe63a <_strtod_l+0x99a>
 23fe71c:	f04f 0800 	mov.w	r8, #0
 23fe720:	f8df 9174 	ldr.w	r9, [pc, #372]	; 23fe898 <_strtod_l+0xbf8>
 23fe724:	e7e7      	b.n	23fe6f6 <_strtod_l+0xa56>
 23fe726:	4b5c      	ldr	r3, [pc, #368]	; (23fe898 <_strtod_l+0xbf8>)
 23fe728:	4640      	mov	r0, r8
 23fe72a:	4649      	mov	r1, r9
 23fe72c:	2200      	movs	r2, #0
 23fe72e:	f7fc ff4b 	bl	23fb5c8 <__aeabi_dmul>
 23fe732:	9b0b      	ldr	r3, [sp, #44]	; 0x2c
 23fe734:	4680      	mov	r8, r0
 23fe736:	4689      	mov	r9, r1
 23fe738:	b933      	cbnz	r3, 23fe748 <_strtod_l+0xaa8>
 23fe73a:	f101 4300 	add.w	r3, r1, #2147483648	; 0x80000000
 23fe73e:	900e      	str	r0, [sp, #56]	; 0x38
 23fe740:	930f      	str	r3, [sp, #60]	; 0x3c
 23fe742:	e9dd 230e 	ldrd	r2, r3, [sp, #56]	; 0x38
 23fe746:	e7dd      	b.n	23fe704 <_strtod_l+0xa64>
 23fe748:	e9cd 890e 	strd	r8, r9, [sp, #56]	; 0x38
 23fe74c:	e7f9      	b.n	23fe742 <_strtod_l+0xaa2>
 23fe74e:	f103 7b54 	add.w	fp, r3, #55574528	; 0x3500000
 23fe752:	9b04      	ldr	r3, [sp, #16]
 23fe754:	2b00      	cmp	r3, #0
 23fe756:	d1a8      	bne.n	23fe6aa <_strtod_l+0xa0a>
 23fe758:	f02b 4300 	bic.w	r3, fp, #2147483648	; 0x80000000
 23fe75c:	9a0d      	ldr	r2, [sp, #52]	; 0x34
 23fe75e:	0d1b      	lsrs	r3, r3, #20
 23fe760:	051b      	lsls	r3, r3, #20
 23fe762:	429a      	cmp	r2, r3
 23fe764:	d1a1      	bne.n	23fe6aa <_strtod_l+0xa0a>
 23fe766:	4640      	mov	r0, r8
 23fe768:	4649      	mov	r1, r9
 23fe76a:	f7fd faa5 	bl	23fbcb8 <__aeabi_d2lz>
 23fe76e:	f7fc fefd 	bl	23fb56c <__aeabi_l2d>
 23fe772:	4602      	mov	r2, r0
 23fe774:	460b      	mov	r3, r1
 23fe776:	4640      	mov	r0, r8
 23fe778:	4649      	mov	r1, r9
 23fe77a:	f7fc fd6d 	bl	23fb258 <__aeabi_dsub>
 23fe77e:	f3cb 0313 	ubfx	r3, fp, #0, #20
 23fe782:	9a0b      	ldr	r2, [sp, #44]	; 0x2c
 23fe784:	4680      	mov	r8, r0
 23fe786:	ea43 030a 	orr.w	r3, r3, sl
 23fe78a:	4689      	mov	r9, r1
 23fe78c:	4313      	orrs	r3, r2
 23fe78e:	d055      	beq.n	23fe83c <_strtod_l+0xb9c>
 23fe790:	a335      	add	r3, pc, #212	; (adr r3, 23fe868 <_strtod_l+0xbc8>)
 23fe792:	e9d3 2300 	ldrd	r2, r3, [r3]
 23fe796:	f7fd f989 	bl	23fbaac <__aeabi_dcmplt>
 23fe79a:	2800      	cmp	r0, #0
 23fe79c:	f47f acd3 	bne.w	23fe146 <_strtod_l+0x4a6>
 23fe7a0:	4640      	mov	r0, r8
 23fe7a2:	4649      	mov	r1, r9
 23fe7a4:	a332      	add	r3, pc, #200	; (adr r3, 23fe870 <_strtod_l+0xbd0>)
 23fe7a6:	e9d3 2300 	ldrd	r2, r3, [r3]
 23fe7aa:	f7fd f99d 	bl	23fbae8 <__aeabi_dcmpgt>
 23fe7ae:	2800      	cmp	r0, #0
 23fe7b0:	f43f af7b 	beq.w	23fe6aa <_strtod_l+0xa0a>
 23fe7b4:	e4c7      	b.n	23fe146 <_strtod_l+0x4a6>
 23fe7b6:	9b04      	ldr	r3, [sp, #16]
 23fe7b8:	b333      	cbz	r3, 23fe808 <_strtod_l+0xb68>
 23fe7ba:	9b0d      	ldr	r3, [sp, #52]	; 0x34
 23fe7bc:	f1b3 6fd4 	cmp.w	r3, #111149056	; 0x6a00000
 23fe7c0:	d822      	bhi.n	23fe808 <_strtod_l+0xb68>
 23fe7c2:	4640      	mov	r0, r8
 23fe7c4:	4649      	mov	r1, r9
 23fe7c6:	a32c      	add	r3, pc, #176	; (adr r3, 23fe878 <_strtod_l+0xbd8>)
 23fe7c8:	e9d3 2300 	ldrd	r2, r3, [r3]
 23fe7cc:	f7fd f978 	bl	23fbac0 <__aeabi_dcmple>
 23fe7d0:	b1a0      	cbz	r0, 23fe7fc <_strtod_l+0xb5c>
 23fe7d2:	4649      	mov	r1, r9
 23fe7d4:	4640      	mov	r0, r8
 23fe7d6:	f7fd f9cf 	bl	23fbb78 <__aeabi_d2uiz>
 23fe7da:	2801      	cmp	r0, #1
 23fe7dc:	bf38      	it	cc
 23fe7de:	2001      	movcc	r0, #1
 23fe7e0:	f7fc fe78 	bl	23fb4d4 <__aeabi_ui2d>
 23fe7e4:	9b0b      	ldr	r3, [sp, #44]	; 0x2c
 23fe7e6:	4680      	mov	r8, r0
 23fe7e8:	4689      	mov	r9, r1
 23fe7ea:	bb23      	cbnz	r3, 23fe836 <_strtod_l+0xb96>
 23fe7ec:	f101 4300 	add.w	r3, r1, #2147483648	; 0x80000000
 23fe7f0:	9010      	str	r0, [sp, #64]	; 0x40
 23fe7f2:	9311      	str	r3, [sp, #68]	; 0x44
 23fe7f4:	e9dd 2310 	ldrd	r2, r3, [sp, #64]	; 0x40
 23fe7f8:	e9cd 2308 	strd	r2, r3, [sp, #32]
 23fe7fc:	9b09      	ldr	r3, [sp, #36]	; 0x24
 23fe7fe:	9a0d      	ldr	r2, [sp, #52]	; 0x34
 23fe800:	f103 63d6 	add.w	r3, r3, #112197632	; 0x6b00000
 23fe804:	1a9b      	subs	r3, r3, r2
 23fe806:	9309      	str	r3, [sp, #36]	; 0x24
 23fe808:	eeb0 0a48 	vmov.f32	s0, s16
 23fe80c:	eef0 0a68 	vmov.f32	s1, s17
 23fe810:	e9dd 0108 	ldrd	r0, r1, [sp, #32]
 23fe814:	e9cd 0108 	strd	r0, r1, [sp, #32]
 23fe818:	f000 ff48 	bl	23ff6ac <__ulp>
 23fe81c:	e9dd 0108 	ldrd	r0, r1, [sp, #32]
 23fe820:	ec53 2b10 	vmov	r2, r3, d0
 23fe824:	f7fc fed0 	bl	23fb5c8 <__aeabi_dmul>
 23fe828:	ec53 2b18 	vmov	r2, r3, d8
 23fe82c:	f7fc fd16 	bl	23fb25c <__adddf3>
 23fe830:	4682      	mov	sl, r0
 23fe832:	468b      	mov	fp, r1
 23fe834:	e78d      	b.n	23fe752 <_strtod_l+0xab2>
 23fe836:	e9cd 8910 	strd	r8, r9, [sp, #64]	; 0x40
 23fe83a:	e7db      	b.n	23fe7f4 <_strtod_l+0xb54>
 23fe83c:	a310      	add	r3, pc, #64	; (adr r3, 23fe880 <_strtod_l+0xbe0>)
 23fe83e:	e9d3 2300 	ldrd	r2, r3, [r3]
 23fe842:	f7fd f933 	bl	23fbaac <__aeabi_dcmplt>
 23fe846:	e7b2      	b.n	23fe7ae <_strtod_l+0xb0e>
 23fe848:	2300      	movs	r3, #0
 23fe84a:	930a      	str	r3, [sp, #40]	; 0x28
 23fe84c:	9b17      	ldr	r3, [sp, #92]	; 0x5c
 23fe84e:	9a13      	ldr	r2, [sp, #76]	; 0x4c
 23fe850:	6013      	str	r3, [r2, #0]
 23fe852:	f7ff ba6d 	b.w	23fdd30 <_strtod_l+0x90>
 23fe856:	2a65      	cmp	r2, #101	; 0x65
 23fe858:	f43f ab61 	beq.w	23fdf1e <_strtod_l+0x27e>
 23fe85c:	2a45      	cmp	r2, #69	; 0x45
 23fe85e:	f43f ab5e 	beq.w	23fdf1e <_strtod_l+0x27e>
 23fe862:	2301      	movs	r3, #1
 23fe864:	f7ff bb96 	b.w	23fdf94 <_strtod_l+0x2f4>
 23fe868:	94a03595 	.word	0x94a03595
 23fe86c:	3fdfffff 	.word	0x3fdfffff
 23fe870:	35afe535 	.word	0x35afe535
 23fe874:	3fe00000 	.word	0x3fe00000
 23fe878:	ffc00000 	.word	0xffc00000
 23fe87c:	41dfffff 	.word	0x41dfffff
 23fe880:	94a03595 	.word	0x94a03595
 23fe884:	3fcfffff 	.word	0x3fcfffff
 23fe888:	3ff00000 	.word	0x3ff00000
 23fe88c:	7ff00000 	.word	0x7ff00000
 23fe890:	7fe00000 	.word	0x7fe00000
 23fe894:	7c9fffff 	.word	0x7c9fffff
 23fe898:	3fe00000 	.word	0x3fe00000
 23fe89c:	bff00000 	.word	0xbff00000
 23fe8a0:	7fefffff 	.word	0x7fefffff

023fe8a4 <strtod>:
 23fe8a4:	460a      	mov	r2, r1
 23fe8a6:	4601      	mov	r1, r0
 23fe8a8:	4802      	ldr	r0, [pc, #8]	; (23fe8b4 <strtod+0x10>)
 23fe8aa:	4b03      	ldr	r3, [pc, #12]	; (23fe8b8 <strtod+0x14>)
 23fe8ac:	6800      	ldr	r0, [r0, #0]
 23fe8ae:	f7ff b9f7 	b.w	23fdca0 <_strtod_l>
 23fe8b2:	bf00      	nop
 23fe8b4:	1007ad08 	.word	0x1007ad08
 23fe8b8:	1007ad70 	.word	0x1007ad70

023fe8bc <rshift>:
 23fe8bc:	6903      	ldr	r3, [r0, #16]
 23fe8be:	114a      	asrs	r2, r1, #5
 23fe8c0:	ebb3 1f61 	cmp.w	r3, r1, asr #5
 23fe8c4:	e92d 43f0 	stmdb	sp!, {r4, r5, r6, r7, r8, r9, lr}
 23fe8c8:	f100 0414 	add.w	r4, r0, #20
 23fe8cc:	dd45      	ble.n	23fe95a <rshift+0x9e>
 23fe8ce:	f011 011f 	ands.w	r1, r1, #31
 23fe8d2:	eb04 0683 	add.w	r6, r4, r3, lsl #2
 23fe8d6:	eb04 0582 	add.w	r5, r4, r2, lsl #2
 23fe8da:	d10c      	bne.n	23fe8f6 <rshift+0x3a>
 23fe8dc:	f100 0710 	add.w	r7, r0, #16
 23fe8e0:	4629      	mov	r1, r5
 23fe8e2:	42b1      	cmp	r1, r6
 23fe8e4:	d334      	bcc.n	23fe950 <rshift+0x94>
 23fe8e6:	1a9b      	subs	r3, r3, r2
 23fe8e8:	1eea      	subs	r2, r5, #3
 23fe8ea:	009b      	lsls	r3, r3, #2
 23fe8ec:	4296      	cmp	r6, r2
 23fe8ee:	bf38      	it	cc
 23fe8f0:	2300      	movcc	r3, #0
 23fe8f2:	4423      	add	r3, r4
 23fe8f4:	e015      	b.n	23fe922 <rshift+0x66>
 23fe8f6:	f854 7022 	ldr.w	r7, [r4, r2, lsl #2]
 23fe8fa:	f1c1 0820 	rsb	r8, r1, #32
 23fe8fe:	f105 0e04 	add.w	lr, r5, #4
 23fe902:	46a1      	mov	r9, r4
 23fe904:	40cf      	lsrs	r7, r1
 23fe906:	4576      	cmp	r6, lr
 23fe908:	46f4      	mov	ip, lr
 23fe90a:	d815      	bhi.n	23fe938 <rshift+0x7c>
 23fe90c:	1a9a      	subs	r2, r3, r2
 23fe90e:	3501      	adds	r5, #1
 23fe910:	0092      	lsls	r2, r2, #2
 23fe912:	3a04      	subs	r2, #4
 23fe914:	42ae      	cmp	r6, r5
 23fe916:	bf38      	it	cc
 23fe918:	2200      	movcc	r2, #0
 23fe91a:	18a3      	adds	r3, r4, r2
 23fe91c:	50a7      	str	r7, [r4, r2]
 23fe91e:	b107      	cbz	r7, 23fe922 <rshift+0x66>
 23fe920:	3304      	adds	r3, #4
 23fe922:	1b1a      	subs	r2, r3, r4
 23fe924:	42a3      	cmp	r3, r4
 23fe926:	ea4f 02a2 	mov.w	r2, r2, asr #2
 23fe92a:	bf08      	it	eq
 23fe92c:	2300      	moveq	r3, #0
 23fe92e:	6102      	str	r2, [r0, #16]
 23fe930:	bf08      	it	eq
 23fe932:	6143      	streq	r3, [r0, #20]
 23fe934:	e8bd 83f0 	ldmia.w	sp!, {r4, r5, r6, r7, r8, r9, pc}
 23fe938:	f8dc c000 	ldr.w	ip, [ip]
 23fe93c:	fa0c fc08 	lsl.w	ip, ip, r8
 23fe940:	ea4c 0707 	orr.w	r7, ip, r7
 23fe944:	f849 7b04 	str.w	r7, [r9], #4
 23fe948:	f85e 7b04 	ldr.w	r7, [lr], #4
 23fe94c:	40cf      	lsrs	r7, r1
 23fe94e:	e7da      	b.n	23fe906 <rshift+0x4a>
 23fe950:	f851 cb04 	ldr.w	ip, [r1], #4
 23fe954:	f847 cf04 	str.w	ip, [r7, #4]!
 23fe958:	e7c3      	b.n	23fe8e2 <rshift+0x26>
 23fe95a:	4623      	mov	r3, r4
 23fe95c:	e7e1      	b.n	23fe922 <rshift+0x66>

023fe95e <__hexdig_fun>:
 23fe95e:	f1a0 0330 	sub.w	r3, r0, #48	; 0x30
 23fe962:	2b09      	cmp	r3, #9
 23fe964:	d802      	bhi.n	23fe96c <__hexdig_fun+0xe>
 23fe966:	3820      	subs	r0, #32
 23fe968:	b2c0      	uxtb	r0, r0
 23fe96a:	4770      	bx	lr
 23fe96c:	f1a0 0361 	sub.w	r3, r0, #97	; 0x61
 23fe970:	2b05      	cmp	r3, #5
 23fe972:	d801      	bhi.n	23fe978 <__hexdig_fun+0x1a>
 23fe974:	3847      	subs	r0, #71	; 0x47
 23fe976:	e7f7      	b.n	23fe968 <__hexdig_fun+0xa>
 23fe978:	f1a0 0341 	sub.w	r3, r0, #65	; 0x41
 23fe97c:	2b05      	cmp	r3, #5
 23fe97e:	d801      	bhi.n	23fe984 <__hexdig_fun+0x26>
 23fe980:	3827      	subs	r0, #39	; 0x27
 23fe982:	e7f1      	b.n	23fe968 <__hexdig_fun+0xa>
 23fe984:	2000      	movs	r0, #0
 23fe986:	4770      	bx	lr

023fe988 <__gethex>:
 23fe988:	e92d 4ff0 	stmdb	sp!, {r4, r5, r6, r7, r8, r9, sl, fp, lr}
 23fe98c:	ed2d 8b02 	vpush	{d8}
 23fe990:	b089      	sub	sp, #36	; 0x24
 23fe992:	ee08 0a10 	vmov	s16, r0
 23fe996:	468b      	mov	fp, r1
 23fe998:	4690      	mov	r8, r2
 23fe99a:	9304      	str	r3, [sp, #16]
 23fe99c:	4bb2      	ldr	r3, [pc, #712]	; (23fec68 <__gethex+0x2e0>)
 23fe99e:	681b      	ldr	r3, [r3, #0]
 23fe9a0:	4618      	mov	r0, r3
 23fe9a2:	9301      	str	r3, [sp, #4]
 23fe9a4:	f7fd f980 	bl	23fbca8 <strlen>
 23fe9a8:	9b01      	ldr	r3, [sp, #4]
 23fe9aa:	f8db 2000 	ldr.w	r2, [fp]
 23fe9ae:	4682      	mov	sl, r0
 23fe9b0:	4403      	add	r3, r0
 23fe9b2:	f813 3c01 	ldrb.w	r3, [r3, #-1]
 23fe9b6:	9305      	str	r3, [sp, #20]
 23fe9b8:	1c93      	adds	r3, r2, #2
 23fe9ba:	f1c2 22ff 	rsb	r2, r2, #4278255360	; 0xff00ff00
 23fe9be:	f502 027f 	add.w	r2, r2, #16711680	; 0xff0000
 23fe9c2:	32fe      	adds	r2, #254	; 0xfe
 23fe9c4:	18d1      	adds	r1, r2, r3
 23fe9c6:	461f      	mov	r7, r3
 23fe9c8:	f813 0b01 	ldrb.w	r0, [r3], #1
 23fe9cc:	9100      	str	r1, [sp, #0]
 23fe9ce:	2830      	cmp	r0, #48	; 0x30
 23fe9d0:	d0f8      	beq.n	23fe9c4 <__gethex+0x3c>
 23fe9d2:	f7ff ffc4 	bl	23fe95e <__hexdig_fun>
 23fe9d6:	4604      	mov	r4, r0
 23fe9d8:	2800      	cmp	r0, #0
 23fe9da:	d139      	bne.n	23fea50 <__gethex+0xc8>
 23fe9dc:	4652      	mov	r2, sl
 23fe9de:	9901      	ldr	r1, [sp, #4]
 23fe9e0:	4638      	mov	r0, r7
 23fe9e2:	f7ff f92d 	bl	23fdc40 <strncmp>
 23fe9e6:	4605      	mov	r5, r0
 23fe9e8:	2800      	cmp	r0, #0
 23fe9ea:	d167      	bne.n	23feabc <__gethex+0x134>
 23fe9ec:	f817 000a 	ldrb.w	r0, [r7, sl]
 23fe9f0:	eb07 060a 	add.w	r6, r7, sl
 23fe9f4:	f7ff ffb3 	bl	23fe95e <__hexdig_fun>
 23fe9f8:	2800      	cmp	r0, #0
 23fe9fa:	d061      	beq.n	23feac0 <__gethex+0x138>
 23fe9fc:	4633      	mov	r3, r6
 23fe9fe:	7818      	ldrb	r0, [r3, #0]
 23fea00:	461f      	mov	r7, r3
 23fea02:	3301      	adds	r3, #1
 23fea04:	2830      	cmp	r0, #48	; 0x30
 23fea06:	d0fa      	beq.n	23fe9fe <__gethex+0x76>
 23fea08:	f7ff ffa9 	bl	23fe95e <__hexdig_fun>
 23fea0c:	fab0 f480 	clz	r4, r0
 23fea10:	2301      	movs	r3, #1
 23fea12:	4635      	mov	r5, r6
 23fea14:	0964      	lsrs	r4, r4, #5
 23fea16:	9300      	str	r3, [sp, #0]
 23fea18:	463a      	mov	r2, r7
 23fea1a:	4616      	mov	r6, r2
 23fea1c:	3201      	adds	r2, #1
 23fea1e:	7830      	ldrb	r0, [r6, #0]
 23fea20:	f7ff ff9d 	bl	23fe95e <__hexdig_fun>
 23fea24:	2800      	cmp	r0, #0
 23fea26:	d1f8      	bne.n	23fea1a <__gethex+0x92>
 23fea28:	4652      	mov	r2, sl
 23fea2a:	9901      	ldr	r1, [sp, #4]
 23fea2c:	4630      	mov	r0, r6
 23fea2e:	f7ff f907 	bl	23fdc40 <strncmp>
 23fea32:	b980      	cbnz	r0, 23fea56 <__gethex+0xce>
 23fea34:	b94d      	cbnz	r5, 23fea4a <__gethex+0xc2>
 23fea36:	eb06 050a 	add.w	r5, r6, sl
 23fea3a:	462a      	mov	r2, r5
 23fea3c:	4616      	mov	r6, r2
 23fea3e:	3201      	adds	r2, #1
 23fea40:	7830      	ldrb	r0, [r6, #0]
 23fea42:	f7ff ff8c 	bl	23fe95e <__hexdig_fun>
 23fea46:	2800      	cmp	r0, #0
 23fea48:	d1f8      	bne.n	23fea3c <__gethex+0xb4>
 23fea4a:	1bad      	subs	r5, r5, r6
 23fea4c:	00ad      	lsls	r5, r5, #2
 23fea4e:	e004      	b.n	23fea5a <__gethex+0xd2>
 23fea50:	2400      	movs	r4, #0
 23fea52:	4625      	mov	r5, r4
 23fea54:	e7e0      	b.n	23fea18 <__gethex+0x90>
 23fea56:	2d00      	cmp	r5, #0
 23fea58:	d1f7      	bne.n	23fea4a <__gethex+0xc2>
 23fea5a:	7833      	ldrb	r3, [r6, #0]
 23fea5c:	f003 03df 	and.w	r3, r3, #223	; 0xdf
 23fea60:	2b50      	cmp	r3, #80	; 0x50
 23fea62:	d13b      	bne.n	23feadc <__gethex+0x154>
 23fea64:	7873      	ldrb	r3, [r6, #1]
 23fea66:	2b2b      	cmp	r3, #43	; 0x2b
 23fea68:	d02c      	beq.n	23feac4 <__gethex+0x13c>
 23fea6a:	2b2d      	cmp	r3, #45	; 0x2d
 23fea6c:	d02e      	beq.n	23feacc <__gethex+0x144>
 23fea6e:	1c71      	adds	r1, r6, #1
 23fea70:	f04f 0900 	mov.w	r9, #0
 23fea74:	7808      	ldrb	r0, [r1, #0]
 23fea76:	f7ff ff72 	bl	23fe95e <__hexdig_fun>
 23fea7a:	1e43      	subs	r3, r0, #1
 23fea7c:	b2db      	uxtb	r3, r3
 23fea7e:	2b18      	cmp	r3, #24
 23fea80:	d82c      	bhi.n	23feadc <__gethex+0x154>
 23fea82:	f1a0 0210 	sub.w	r2, r0, #16
 23fea86:	f811 0f01 	ldrb.w	r0, [r1, #1]!
 23fea8a:	f7ff ff68 	bl	23fe95e <__hexdig_fun>
 23fea8e:	1e43      	subs	r3, r0, #1
 23fea90:	b2db      	uxtb	r3, r3
 23fea92:	2b18      	cmp	r3, #24
 23fea94:	d91d      	bls.n	23fead2 <__gethex+0x14a>
 23fea96:	f1b9 0f00 	cmp.w	r9, #0
 23fea9a:	d000      	beq.n	23fea9e <__gethex+0x116>
 23fea9c:	4252      	negs	r2, r2
 23fea9e:	4415      	add	r5, r2
 23feaa0:	f8cb 1000 	str.w	r1, [fp]
 23feaa4:	b1e4      	cbz	r4, 23feae0 <__gethex+0x158>
 23feaa6:	9b00      	ldr	r3, [sp, #0]
 23feaa8:	2b00      	cmp	r3, #0
 23feaaa:	bf14      	ite	ne
 23feaac:	2700      	movne	r7, #0
 23feaae:	2706      	moveq	r7, #6
 23feab0:	4638      	mov	r0, r7
 23feab2:	b009      	add	sp, #36	; 0x24
 23feab4:	ecbd 8b02 	vpop	{d8}
 23feab8:	e8bd 8ff0 	ldmia.w	sp!, {r4, r5, r6, r7, r8, r9, sl, fp, pc}
 23feabc:	463e      	mov	r6, r7
 23feabe:	4625      	mov	r5, r4
 23feac0:	2401      	movs	r4, #1
 23feac2:	e7ca      	b.n	23fea5a <__gethex+0xd2>
 23feac4:	f04f 0900 	mov.w	r9, #0
 23feac8:	1cb1      	adds	r1, r6, #2
 23feaca:	e7d3      	b.n	23fea74 <__gethex+0xec>
 23feacc:	f04f 0901 	mov.w	r9, #1
 23fead0:	e7fa      	b.n	23feac8 <__gethex+0x140>
 23fead2:	230a      	movs	r3, #10
 23fead4:	fb03 0202 	mla	r2, r3, r2, r0
 23fead8:	3a10      	subs	r2, #16
 23feada:	e7d4      	b.n	23fea86 <__gethex+0xfe>
 23feadc:	4631      	mov	r1, r6
 23feade:	e7df      	b.n	23feaa0 <__gethex+0x118>
 23feae0:	1bf3      	subs	r3, r6, r7
 23feae2:	4621      	mov	r1, r4
 23feae4:	3b01      	subs	r3, #1
 23feae6:	2b07      	cmp	r3, #7
 23feae8:	dc0b      	bgt.n	23feb02 <__gethex+0x17a>
 23feaea:	ee18 0a10 	vmov	r0, s16
 23feaee:	f000 fa65 	bl	23fefbc <_Balloc>
 23feaf2:	4604      	mov	r4, r0
 23feaf4:	b940      	cbnz	r0, 23feb08 <__gethex+0x180>
 23feaf6:	4b5d      	ldr	r3, [pc, #372]	; (23fec6c <__gethex+0x2e4>)
 23feaf8:	4602      	mov	r2, r0
 23feafa:	21de      	movs	r1, #222	; 0xde
 23feafc:	485c      	ldr	r0, [pc, #368]	; (23fec70 <__gethex+0x2e8>)
 23feafe:	f7fe f8df 	bl	23fccc0 <__assert_func>
 23feb02:	3101      	adds	r1, #1
 23feb04:	105b      	asrs	r3, r3, #1
 23feb06:	e7ee      	b.n	23feae6 <__gethex+0x15e>
 23feb08:	f100 0914 	add.w	r9, r0, #20
 23feb0c:	f04f 0b00 	mov.w	fp, #0
 23feb10:	f1ca 0301 	rsb	r3, sl, #1
 23feb14:	f8cd 9008 	str.w	r9, [sp, #8]
 23feb18:	f8cd b000 	str.w	fp, [sp]
 23feb1c:	9306      	str	r3, [sp, #24]
 23feb1e:	42b7      	cmp	r7, r6
 23feb20:	d340      	bcc.n	23feba4 <__gethex+0x21c>
 23feb22:	9802      	ldr	r0, [sp, #8]
 23feb24:	9b00      	ldr	r3, [sp, #0]
 23feb26:	f840 3b04 	str.w	r3, [r0], #4
 23feb2a:	eba0 0009 	sub.w	r0, r0, r9
 23feb2e:	1080      	asrs	r0, r0, #2
 23feb30:	0146      	lsls	r6, r0, #5
 23feb32:	6120      	str	r0, [r4, #16]
 23feb34:	4618      	mov	r0, r3
 23feb36:	f000 fb35 	bl	23ff1a4 <__hi0bits>
 23feb3a:	1a30      	subs	r0, r6, r0
 23feb3c:	f8d8 6000 	ldr.w	r6, [r8]
 23feb40:	42b0      	cmp	r0, r6
 23feb42:	dd63      	ble.n	23fec0c <__gethex+0x284>
 23feb44:	1b87      	subs	r7, r0, r6
 23feb46:	4620      	mov	r0, r4
 23feb48:	4639      	mov	r1, r7
 23feb4a:	f000 fedb 	bl	23ff904 <__any_on>
 23feb4e:	4682      	mov	sl, r0
 23feb50:	b1a8      	cbz	r0, 23feb7e <__gethex+0x1f6>
 23feb52:	1e7b      	subs	r3, r7, #1
 23feb54:	f04f 0a01 	mov.w	sl, #1
 23feb58:	1159      	asrs	r1, r3, #5
 23feb5a:	f003 021f 	and.w	r2, r3, #31
 23feb5e:	f859 1021 	ldr.w	r1, [r9, r1, lsl #2]
 23feb62:	fa0a f202 	lsl.w	r2, sl, r2
 23feb66:	420a      	tst	r2, r1
 23feb68:	d009      	beq.n	23feb7e <__gethex+0x1f6>
 23feb6a:	4553      	cmp	r3, sl
 23feb6c:	dd05      	ble.n	23feb7a <__gethex+0x1f2>
 23feb6e:	1eb9      	subs	r1, r7, #2
 23feb70:	4620      	mov	r0, r4
 23feb72:	f000 fec7 	bl	23ff904 <__any_on>
 23feb76:	2800      	cmp	r0, #0
 23feb78:	d145      	bne.n	23fec06 <__gethex+0x27e>
 23feb7a:	f04f 0a02 	mov.w	sl, #2
 23feb7e:	443d      	add	r5, r7
 23feb80:	4639      	mov	r1, r7
 23feb82:	4620      	mov	r0, r4
 23feb84:	f7ff fe9a 	bl	23fe8bc <rshift>
 23feb88:	f8d8 3008 	ldr.w	r3, [r8, #8]
 23feb8c:	42ab      	cmp	r3, r5
 23feb8e:	da4c      	bge.n	23fec2a <__gethex+0x2a2>
 23feb90:	4621      	mov	r1, r4
 23feb92:	ee18 0a10 	vmov	r0, s16
 23feb96:	f000 fa51 	bl	23ff03c <_Bfree>
 23feb9a:	2300      	movs	r3, #0
 23feb9c:	9a14      	ldr	r2, [sp, #80]	; 0x50
 23feb9e:	27a3      	movs	r7, #163	; 0xa3
 23feba0:	6013      	str	r3, [r2, #0]
 23feba2:	e785      	b.n	23feab0 <__gethex+0x128>
 23feba4:	1e73      	subs	r3, r6, #1
 23feba6:	9a05      	ldr	r2, [sp, #20]
 23feba8:	9303      	str	r3, [sp, #12]
 23febaa:	f816 3c01 	ldrb.w	r3, [r6, #-1]
 23febae:	4293      	cmp	r3, r2
 23febb0:	d019      	beq.n	23febe6 <__gethex+0x25e>
 23febb2:	f1bb 0f20 	cmp.w	fp, #32
 23febb6:	d107      	bne.n	23febc8 <__gethex+0x240>
 23febb8:	9b02      	ldr	r3, [sp, #8]
 23febba:	9a00      	ldr	r2, [sp, #0]
 23febbc:	f843 2b04 	str.w	r2, [r3], #4
 23febc0:	9302      	str	r3, [sp, #8]
 23febc2:	2300      	movs	r3, #0
 23febc4:	469b      	mov	fp, r3
 23febc6:	9300      	str	r3, [sp, #0]
 23febc8:	f816 0c01 	ldrb.w	r0, [r6, #-1]
 23febcc:	f7ff fec7 	bl	23fe95e <__hexdig_fun>
 23febd0:	f000 000f 	and.w	r0, r0, #15
 23febd4:	9b00      	ldr	r3, [sp, #0]
 23febd6:	fa00 f00b 	lsl.w	r0, r0, fp
 23febda:	f10b 0b04 	add.w	fp, fp, #4
 23febde:	4303      	orrs	r3, r0
 23febe0:	9300      	str	r3, [sp, #0]
 23febe2:	9b03      	ldr	r3, [sp, #12]
 23febe4:	e00d      	b.n	23fec02 <__gethex+0x27a>
 23febe6:	9b03      	ldr	r3, [sp, #12]
 23febe8:	9a06      	ldr	r2, [sp, #24]
 23febea:	4413      	add	r3, r2
 23febec:	42bb      	cmp	r3, r7
 23febee:	d3e0      	bcc.n	23febb2 <__gethex+0x22a>
 23febf0:	4618      	mov	r0, r3
 23febf2:	4652      	mov	r2, sl
 23febf4:	9901      	ldr	r1, [sp, #4]
 23febf6:	9307      	str	r3, [sp, #28]
 23febf8:	f7ff f822 	bl	23fdc40 <strncmp>
 23febfc:	9b07      	ldr	r3, [sp, #28]
 23febfe:	2800      	cmp	r0, #0
 23fec00:	d1d7      	bne.n	23febb2 <__gethex+0x22a>
 23fec02:	461e      	mov	r6, r3
 23fec04:	e78b      	b.n	23feb1e <__gethex+0x196>
 23fec06:	f04f 0a03 	mov.w	sl, #3
 23fec0a:	e7b8      	b.n	23feb7e <__gethex+0x1f6>
 23fec0c:	da0a      	bge.n	23fec24 <__gethex+0x29c>
 23fec0e:	1a37      	subs	r7, r6, r0
 23fec10:	4621      	mov	r1, r4
 23fec12:	ee18 0a10 	vmov	r0, s16
 23fec16:	463a      	mov	r2, r7
 23fec18:	1bed      	subs	r5, r5, r7
 23fec1a:	f000 fc2b 	bl	23ff474 <__lshift>
 23fec1e:	4604      	mov	r4, r0
 23fec20:	f100 0914 	add.w	r9, r0, #20
 23fec24:	f04f 0a00 	mov.w	sl, #0
 23fec28:	e7ae      	b.n	23feb88 <__gethex+0x200>
 23fec2a:	f8d8 0004 	ldr.w	r0, [r8, #4]
 23fec2e:	42a8      	cmp	r0, r5
 23fec30:	dd72      	ble.n	23fed18 <__gethex+0x390>
 23fec32:	1b45      	subs	r5, r0, r5
 23fec34:	42ae      	cmp	r6, r5
 23fec36:	dc35      	bgt.n	23feca4 <__gethex+0x31c>
 23fec38:	f8d8 300c 	ldr.w	r3, [r8, #12]
 23fec3c:	2b02      	cmp	r3, #2
 23fec3e:	d029      	beq.n	23fec94 <__gethex+0x30c>
 23fec40:	2b03      	cmp	r3, #3
 23fec42:	d02b      	beq.n	23fec9c <__gethex+0x314>
 23fec44:	2b01      	cmp	r3, #1
 23fec46:	d11b      	bne.n	23fec80 <__gethex+0x2f8>
 23fec48:	42ae      	cmp	r6, r5
 23fec4a:	d119      	bne.n	23fec80 <__gethex+0x2f8>
 23fec4c:	2e01      	cmp	r6, #1
 23fec4e:	d111      	bne.n	23fec74 <__gethex+0x2ec>
 23fec50:	f8d8 3004 	ldr.w	r3, [r8, #4]
 23fec54:	2762      	movs	r7, #98	; 0x62
 23fec56:	9a04      	ldr	r2, [sp, #16]
 23fec58:	6013      	str	r3, [r2, #0]
 23fec5a:	2301      	movs	r3, #1
 23fec5c:	6123      	str	r3, [r4, #16]
 23fec5e:	f8c9 3000 	str.w	r3, [r9]
 23fec62:	9b14      	ldr	r3, [sp, #80]	; 0x50
 23fec64:	601c      	str	r4, [r3, #0]
 23fec66:	e723      	b.n	23feab0 <__gethex+0x128>
 23fec68:	023ffe64 	.word	0x023ffe64
 23fec6c:	023ffdf1 	.word	0x023ffdf1
 23fec70:	023ffe02 	.word	0x023ffe02
 23fec74:	1e71      	subs	r1, r6, #1
 23fec76:	4620      	mov	r0, r4
 23fec78:	f000 fe44 	bl	23ff904 <__any_on>
 23fec7c:	2800      	cmp	r0, #0
 23fec7e:	d1e7      	bne.n	23fec50 <__gethex+0x2c8>
 23fec80:	4621      	mov	r1, r4
 23fec82:	ee18 0a10 	vmov	r0, s16
 23fec86:	f000 f9d9 	bl	23ff03c <_Bfree>
 23fec8a:	2300      	movs	r3, #0
 23fec8c:	9a14      	ldr	r2, [sp, #80]	; 0x50
 23fec8e:	2750      	movs	r7, #80	; 0x50
 23fec90:	6013      	str	r3, [r2, #0]
 23fec92:	e70d      	b.n	23feab0 <__gethex+0x128>
 23fec94:	9b15      	ldr	r3, [sp, #84]	; 0x54
 23fec96:	2b00      	cmp	r3, #0
 23fec98:	d1f2      	bne.n	23fec80 <__gethex+0x2f8>
 23fec9a:	e7d9      	b.n	23fec50 <__gethex+0x2c8>
 23fec9c:	9b15      	ldr	r3, [sp, #84]	; 0x54
 23fec9e:	2b00      	cmp	r3, #0
 23feca0:	d1d6      	bne.n	23fec50 <__gethex+0x2c8>
 23feca2:	e7ed      	b.n	23fec80 <__gethex+0x2f8>
 23feca4:	1e6f      	subs	r7, r5, #1
 23feca6:	f1ba 0f00 	cmp.w	sl, #0
 23fecaa:	d132      	bne.n	23fed12 <__gethex+0x38a>
 23fecac:	b127      	cbz	r7, 23fecb8 <__gethex+0x330>
 23fecae:	4639      	mov	r1, r7
 23fecb0:	4620      	mov	r0, r4
 23fecb2:	f000 fe27 	bl	23ff904 <__any_on>
 23fecb6:	4682      	mov	sl, r0
 23fecb8:	117b      	asrs	r3, r7, #5
 23fecba:	2101      	movs	r1, #1
 23fecbc:	f007 071f 	and.w	r7, r7, #31
 23fecc0:	4620      	mov	r0, r4
 23fecc2:	f859 3023 	ldr.w	r3, [r9, r3, lsl #2]
 23fecc6:	1b76      	subs	r6, r6, r5
 23fecc8:	fa01 f707 	lsl.w	r7, r1, r7
 23feccc:	4629      	mov	r1, r5
 23fecce:	421f      	tst	r7, r3
 23fecd0:	f04f 0702 	mov.w	r7, #2
 23fecd4:	bf18      	it	ne
 23fecd6:	f04a 0a02 	orrne.w	sl, sl, #2
 23fecda:	f7ff fdef 	bl	23fe8bc <rshift>
 23fecde:	f8d8 5004 	ldr.w	r5, [r8, #4]
 23fece2:	f1ba 0f00 	cmp.w	sl, #0
 23fece6:	d048      	beq.n	23fed7a <__gethex+0x3f2>
 23fece8:	f8d8 300c 	ldr.w	r3, [r8, #12]
 23fecec:	2b02      	cmp	r3, #2
 23fecee:	d015      	beq.n	23fed1c <__gethex+0x394>
 23fecf0:	2b03      	cmp	r3, #3
 23fecf2:	d017      	beq.n	23fed24 <__gethex+0x39c>
 23fecf4:	2b01      	cmp	r3, #1
 23fecf6:	d109      	bne.n	23fed0c <__gethex+0x384>
 23fecf8:	f01a 0f02 	tst.w	sl, #2
 23fecfc:	d006      	beq.n	23fed0c <__gethex+0x384>
 23fecfe:	f8d9 0000 	ldr.w	r0, [r9]
 23fed02:	ea4a 0a00 	orr.w	sl, sl, r0
 23fed06:	f01a 0f01 	tst.w	sl, #1
 23fed0a:	d10e      	bne.n	23fed2a <__gethex+0x3a2>
 23fed0c:	f047 0710 	orr.w	r7, r7, #16
 23fed10:	e033      	b.n	23fed7a <__gethex+0x3f2>
 23fed12:	f04f 0a01 	mov.w	sl, #1
 23fed16:	e7cf      	b.n	23fecb8 <__gethex+0x330>
 23fed18:	2701      	movs	r7, #1
 23fed1a:	e7e2      	b.n	23fece2 <__gethex+0x35a>
 23fed1c:	9b15      	ldr	r3, [sp, #84]	; 0x54
 23fed1e:	f1c3 0301 	rsb	r3, r3, #1
 23fed22:	9315      	str	r3, [sp, #84]	; 0x54
 23fed24:	9b15      	ldr	r3, [sp, #84]	; 0x54
 23fed26:	2b00      	cmp	r3, #0
 23fed28:	d0f0      	beq.n	23fed0c <__gethex+0x384>
 23fed2a:	f8d4 b010 	ldr.w	fp, [r4, #16]
 23fed2e:	f104 0314 	add.w	r3, r4, #20
 23fed32:	f04f 0c00 	mov.w	ip, #0
 23fed36:	ea4f 0a8b 	mov.w	sl, fp, lsl #2
 23fed3a:	eb03 018b 	add.w	r1, r3, fp, lsl #2
 23fed3e:	4618      	mov	r0, r3
 23fed40:	f853 2b04 	ldr.w	r2, [r3], #4
 23fed44:	f1b2 3fff 	cmp.w	r2, #4294967295	; 0xffffffff
 23fed48:	d01c      	beq.n	23fed84 <__gethex+0x3fc>
 23fed4a:	3201      	adds	r2, #1
 23fed4c:	6002      	str	r2, [r0, #0]
 23fed4e:	2f02      	cmp	r7, #2
 23fed50:	f104 0314 	add.w	r3, r4, #20
 23fed54:	d13f      	bne.n	23fedd6 <__gethex+0x44e>
 23fed56:	f8d8 2000 	ldr.w	r2, [r8]
 23fed5a:	3a01      	subs	r2, #1
 23fed5c:	42b2      	cmp	r2, r6
 23fed5e:	d10a      	bne.n	23fed76 <__gethex+0x3ee>
 23fed60:	1171      	asrs	r1, r6, #5
 23fed62:	2201      	movs	r2, #1
 23fed64:	f006 061f 	and.w	r6, r6, #31
 23fed68:	f853 3021 	ldr.w	r3, [r3, r1, lsl #2]
 23fed6c:	fa02 f606 	lsl.w	r6, r2, r6
 23fed70:	421e      	tst	r6, r3
 23fed72:	bf18      	it	ne
 23fed74:	4617      	movne	r7, r2
 23fed76:	f047 0720 	orr.w	r7, r7, #32
 23fed7a:	9b14      	ldr	r3, [sp, #80]	; 0x50
 23fed7c:	601c      	str	r4, [r3, #0]
 23fed7e:	9b04      	ldr	r3, [sp, #16]
 23fed80:	601d      	str	r5, [r3, #0]
 23fed82:	e695      	b.n	23feab0 <__gethex+0x128>
 23fed84:	4299      	cmp	r1, r3
 23fed86:	f843 cc04 	str.w	ip, [r3, #-4]
 23fed8a:	d8d8      	bhi.n	23fed3e <__gethex+0x3b6>
 23fed8c:	68a3      	ldr	r3, [r4, #8]
 23fed8e:	459b      	cmp	fp, r3
 23fed90:	db19      	blt.n	23fedc6 <__gethex+0x43e>
 23fed92:	6861      	ldr	r1, [r4, #4]
 23fed94:	ee18 0a10 	vmov	r0, s16
 23fed98:	3101      	adds	r1, #1
 23fed9a:	f000 f90f 	bl	23fefbc <_Balloc>
 23fed9e:	4681      	mov	r9, r0
 23feda0:	b918      	cbnz	r0, 23fedaa <__gethex+0x422>
 23feda2:	4b1b      	ldr	r3, [pc, #108]	; (23fee10 <__gethex+0x488>)
 23feda4:	4602      	mov	r2, r0
 23feda6:	2184      	movs	r1, #132	; 0x84
 23feda8:	e6a8      	b.n	23feafc <__gethex+0x174>
 23fedaa:	6922      	ldr	r2, [r4, #16]
 23fedac:	f104 010c 	add.w	r1, r4, #12
 23fedb0:	300c      	adds	r0, #12
 23fedb2:	3202      	adds	r2, #2
 23fedb4:	0092      	lsls	r2, r2, #2
 23fedb6:	f7fe ff00 	bl	23fdbba <memcpy>
 23fedba:	4621      	mov	r1, r4
 23fedbc:	464c      	mov	r4, r9
 23fedbe:	ee18 0a10 	vmov	r0, s16
 23fedc2:	f000 f93b 	bl	23ff03c <_Bfree>
 23fedc6:	6923      	ldr	r3, [r4, #16]
 23fedc8:	1c5a      	adds	r2, r3, #1
 23fedca:	eb04 0383 	add.w	r3, r4, r3, lsl #2
 23fedce:	6122      	str	r2, [r4, #16]
 23fedd0:	2201      	movs	r2, #1
 23fedd2:	615a      	str	r2, [r3, #20]
 23fedd4:	e7bb      	b.n	23fed4e <__gethex+0x3c6>
 23fedd6:	6922      	ldr	r2, [r4, #16]
 23fedd8:	455a      	cmp	r2, fp
 23fedda:	dd0b      	ble.n	23fedf4 <__gethex+0x46c>
 23feddc:	2101      	movs	r1, #1
 23fedde:	4620      	mov	r0, r4
 23fede0:	f7ff fd6c 	bl	23fe8bc <rshift>
 23fede4:	3501      	adds	r5, #1
 23fede6:	f8d8 3008 	ldr.w	r3, [r8, #8]
 23fedea:	42ab      	cmp	r3, r5
 23fedec:	f6ff aed0 	blt.w	23feb90 <__gethex+0x208>
 23fedf0:	2701      	movs	r7, #1
 23fedf2:	e7c0      	b.n	23fed76 <__gethex+0x3ee>
 23fedf4:	f016 061f 	ands.w	r6, r6, #31
 23fedf8:	d0fa      	beq.n	23fedf0 <__gethex+0x468>
 23fedfa:	4453      	add	r3, sl
 23fedfc:	f1c6 0620 	rsb	r6, r6, #32
 23fee00:	f853 0c04 	ldr.w	r0, [r3, #-4]
 23fee04:	f000 f9ce 	bl	23ff1a4 <__hi0bits>
 23fee08:	42b0      	cmp	r0, r6
 23fee0a:	dbe7      	blt.n	23feddc <__gethex+0x454>
 23fee0c:	e7f0      	b.n	23fedf0 <__gethex+0x468>
 23fee0e:	bf00      	nop
 23fee10:	023ffdf1 	.word	0x023ffdf1

023fee14 <L_shift>:
 23fee14:	f1c2 0208 	rsb	r2, r2, #8
 23fee18:	0092      	lsls	r2, r2, #2
 23fee1a:	b570      	push	{r4, r5, r6, lr}
 23fee1c:	f1c2 0620 	rsb	r6, r2, #32
 23fee20:	6843      	ldr	r3, [r0, #4]
 23fee22:	6804      	ldr	r4, [r0, #0]
 23fee24:	fa03 f506 	lsl.w	r5, r3, r6
 23fee28:	40d3      	lsrs	r3, r2
 23fee2a:	432c      	orrs	r4, r5
 23fee2c:	6004      	str	r4, [r0, #0]
 23fee2e:	f840 3f04 	str.w	r3, [r0, #4]!
 23fee32:	4288      	cmp	r0, r1
 23fee34:	d3f4      	bcc.n	23fee20 <L_shift+0xc>
 23fee36:	bd70      	pop	{r4, r5, r6, pc}

023fee38 <__match>:
 23fee38:	6803      	ldr	r3, [r0, #0]
 23fee3a:	3301      	adds	r3, #1
 23fee3c:	b530      	push	{r4, r5, lr}
 23fee3e:	f811 4b01 	ldrb.w	r4, [r1], #1
 23fee42:	b914      	cbnz	r4, 23fee4a <__match+0x12>
 23fee44:	6003      	str	r3, [r0, #0]
 23fee46:	2001      	movs	r0, #1
 23fee48:	bd30      	pop	{r4, r5, pc}
 23fee4a:	f813 2b01 	ldrb.w	r2, [r3], #1
 23fee4e:	f1a2 0541 	sub.w	r5, r2, #65	; 0x41
 23fee52:	2d19      	cmp	r5, #25
 23fee54:	bf98      	it	ls
 23fee56:	3220      	addls	r2, #32
 23fee58:	42a2      	cmp	r2, r4
 23fee5a:	d0f0      	beq.n	23fee3e <__match+0x6>
 23fee5c:	2000      	movs	r0, #0
 23fee5e:	e7f3      	b.n	23fee48 <__match+0x10>

023fee60 <__hexnan>:
 23fee60:	680b      	ldr	r3, [r1, #0]
 23fee62:	e92d 4ff0 	stmdb	sp!, {r4, r5, r6, r7, r8, r9, sl, fp, lr}
 23fee66:	115e      	asrs	r6, r3, #5
 23fee68:	f013 031f 	ands.w	r3, r3, #31
 23fee6c:	f04f 0500 	mov.w	r5, #0
 23fee70:	b087      	sub	sp, #28
 23fee72:	eb02 0686 	add.w	r6, r2, r6, lsl #2
 23fee76:	4690      	mov	r8, r2
 23fee78:	4682      	mov	sl, r0
 23fee7a:	6802      	ldr	r2, [r0, #0]
 23fee7c:	bf18      	it	ne
 23fee7e:	3604      	addne	r6, #4
 23fee80:	46ab      	mov	fp, r5
 23fee82:	9301      	str	r3, [sp, #4]
 23fee84:	1f37      	subs	r7, r6, #4
 23fee86:	f846 5c04 	str.w	r5, [r6, #-4]
 23fee8a:	9502      	str	r5, [sp, #8]
 23fee8c:	46b9      	mov	r9, r7
 23fee8e:	463c      	mov	r4, r7
 23fee90:	1c53      	adds	r3, r2, #1
 23fee92:	7851      	ldrb	r1, [r2, #1]
 23fee94:	9303      	str	r3, [sp, #12]
 23fee96:	b341      	cbz	r1, 23feeea <__hexnan+0x8a>
 23fee98:	4608      	mov	r0, r1
 23fee9a:	9205      	str	r2, [sp, #20]
 23fee9c:	9104      	str	r1, [sp, #16]
 23fee9e:	f7ff fd5e 	bl	23fe95e <__hexdig_fun>
 23feea2:	2800      	cmp	r0, #0
 23feea4:	d14f      	bne.n	23fef46 <__hexnan+0xe6>
 23feea6:	9904      	ldr	r1, [sp, #16]
 23feea8:	9a05      	ldr	r2, [sp, #20]
 23feeaa:	2920      	cmp	r1, #32
 23feeac:	d818      	bhi.n	23feee0 <__hexnan+0x80>
 23feeae:	9b02      	ldr	r3, [sp, #8]
 23feeb0:	459b      	cmp	fp, r3
 23feeb2:	dd13      	ble.n	23feedc <__hexnan+0x7c>
 23feeb4:	454c      	cmp	r4, r9
 23feeb6:	d206      	bcs.n	23feec6 <__hexnan+0x66>
 23feeb8:	2d07      	cmp	r5, #7
 23feeba:	dc04      	bgt.n	23feec6 <__hexnan+0x66>
 23feebc:	462a      	mov	r2, r5
 23feebe:	4649      	mov	r1, r9
 23feec0:	4620      	mov	r0, r4
 23feec2:	f7ff ffa7 	bl	23fee14 <L_shift>
 23feec6:	4544      	cmp	r4, r8
 23feec8:	d94f      	bls.n	23fef6a <__hexnan+0x10a>
 23feeca:	2300      	movs	r3, #0
 23feecc:	f1a4 0904 	sub.w	r9, r4, #4
 23feed0:	f8cd b008 	str.w	fp, [sp, #8]
 23feed4:	f844 3c04 	str.w	r3, [r4, #-4]
 23feed8:	461d      	mov	r5, r3
 23feeda:	464c      	mov	r4, r9
 23feedc:	9a03      	ldr	r2, [sp, #12]
 23feede:	e7d7      	b.n	23fee90 <__hexnan+0x30>
 23feee0:	2929      	cmp	r1, #41	; 0x29
 23feee2:	d155      	bne.n	23fef90 <__hexnan+0x130>
 23feee4:	3202      	adds	r2, #2
 23feee6:	f8ca 2000 	str.w	r2, [sl]
 23feeea:	f1bb 0f00 	cmp.w	fp, #0
 23feeee:	d04f      	beq.n	23fef90 <__hexnan+0x130>
 23feef0:	454c      	cmp	r4, r9
 23feef2:	d206      	bcs.n	23fef02 <__hexnan+0xa2>
 23feef4:	2d07      	cmp	r5, #7
 23feef6:	dc04      	bgt.n	23fef02 <__hexnan+0xa2>
 23feef8:	462a      	mov	r2, r5
 23feefa:	4649      	mov	r1, r9
 23feefc:	4620      	mov	r0, r4
 23feefe:	f7ff ff89 	bl	23fee14 <L_shift>
 23fef02:	4544      	cmp	r4, r8
 23fef04:	d933      	bls.n	23fef6e <__hexnan+0x10e>
 23fef06:	f1a8 0204 	sub.w	r2, r8, #4
 23fef0a:	4623      	mov	r3, r4
 23fef0c:	f853 1b04 	ldr.w	r1, [r3], #4
 23fef10:	429f      	cmp	r7, r3
 23fef12:	f842 1f04 	str.w	r1, [r2, #4]!
 23fef16:	d2f9      	bcs.n	23fef0c <__hexnan+0xac>
 23fef18:	1b3b      	subs	r3, r7, r4
 23fef1a:	3e03      	subs	r6, #3
 23fef1c:	3401      	adds	r4, #1
 23fef1e:	2200      	movs	r2, #0
 23fef20:	f023 0303 	bic.w	r3, r3, #3
 23fef24:	3304      	adds	r3, #4
 23fef26:	42b4      	cmp	r4, r6
 23fef28:	bf88      	it	hi
 23fef2a:	2304      	movhi	r3, #4
 23fef2c:	4443      	add	r3, r8
 23fef2e:	f843 2b04 	str.w	r2, [r3], #4
 23fef32:	429f      	cmp	r7, r3
 23fef34:	d2fb      	bcs.n	23fef2e <__hexnan+0xce>
 23fef36:	683b      	ldr	r3, [r7, #0]
 23fef38:	b91b      	cbnz	r3, 23fef42 <__hexnan+0xe2>
 23fef3a:	4547      	cmp	r7, r8
 23fef3c:	d126      	bne.n	23fef8c <__hexnan+0x12c>
 23fef3e:	2301      	movs	r3, #1
 23fef40:	603b      	str	r3, [r7, #0]
 23fef42:	2005      	movs	r0, #5
 23fef44:	e025      	b.n	23fef92 <__hexnan+0x132>
 23fef46:	3501      	adds	r5, #1
 23fef48:	f10b 0b01 	add.w	fp, fp, #1
 23fef4c:	2d08      	cmp	r5, #8
 23fef4e:	dd05      	ble.n	23fef5c <__hexnan+0xfc>
 23fef50:	4544      	cmp	r4, r8
 23fef52:	d9c3      	bls.n	23feedc <__hexnan+0x7c>
 23fef54:	2300      	movs	r3, #0
 23fef56:	3c04      	subs	r4, #4
 23fef58:	2501      	movs	r5, #1
 23fef5a:	6023      	str	r3, [r4, #0]
 23fef5c:	6822      	ldr	r2, [r4, #0]
 23fef5e:	f000 000f 	and.w	r0, r0, #15
 23fef62:	ea40 1202 	orr.w	r2, r0, r2, lsl #4
 23fef66:	6022      	str	r2, [r4, #0]
 23fef68:	e7b8      	b.n	23feedc <__hexnan+0x7c>
 23fef6a:	2508      	movs	r5, #8
 23fef6c:	e7b6      	b.n	23feedc <__hexnan+0x7c>
 23fef6e:	9b01      	ldr	r3, [sp, #4]
 23fef70:	2b00      	cmp	r3, #0
 23fef72:	d0e0      	beq.n	23fef36 <__hexnan+0xd6>
 23fef74:	f04f 32ff 	mov.w	r2, #4294967295	; 0xffffffff
 23fef78:	f1c3 0320 	rsb	r3, r3, #32
 23fef7c:	fa22 f303 	lsr.w	r3, r2, r3
 23fef80:	f856 2c04 	ldr.w	r2, [r6, #-4]
 23fef84:	401a      	ands	r2, r3
 23fef86:	f846 2c04 	str.w	r2, [r6, #-4]
 23fef8a:	e7d4      	b.n	23fef36 <__hexnan+0xd6>
 23fef8c:	3f04      	subs	r7, #4
 23fef8e:	e7d2      	b.n	23fef36 <__hexnan+0xd6>
 23fef90:	2004      	movs	r0, #4
 23fef92:	b007      	add	sp, #28
 23fef94:	e8bd 8ff0 	ldmia.w	sp!, {r4, r5, r6, r7, r8, r9, sl, fp, pc}

023fef98 <__ascii_mbtowc>:
 23fef98:	b082      	sub	sp, #8
 23fef9a:	b901      	cbnz	r1, 23fef9e <__ascii_mbtowc+0x6>
 23fef9c:	a901      	add	r1, sp, #4
 23fef9e:	b142      	cbz	r2, 23fefb2 <__ascii_mbtowc+0x1a>
 23fefa0:	b14b      	cbz	r3, 23fefb6 <__ascii_mbtowc+0x1e>
 23fefa2:	7813      	ldrb	r3, [r2, #0]
 23fefa4:	600b      	str	r3, [r1, #0]
 23fefa6:	7812      	ldrb	r2, [r2, #0]
 23fefa8:	1e10      	subs	r0, r2, #0
 23fefaa:	bf18      	it	ne
 23fefac:	2001      	movne	r0, #1
 23fefae:	b002      	add	sp, #8
 23fefb0:	4770      	bx	lr
 23fefb2:	4610      	mov	r0, r2
 23fefb4:	e7fb      	b.n	23fefae <__ascii_mbtowc+0x16>
 23fefb6:	f06f 0001 	mvn.w	r0, #1
 23fefba:	e7f8      	b.n	23fefae <__ascii_mbtowc+0x16>

023fefbc <_Balloc>:
 23fefbc:	b570      	push	{r4, r5, r6, lr}
 23fefbe:	6a46      	ldr	r6, [r0, #36]	; 0x24
 23fefc0:	4604      	mov	r4, r0
 23fefc2:	460d      	mov	r5, r1
 23fefc4:	b976      	cbnz	r6, 23fefe4 <_Balloc+0x28>
 23fefc6:	2010      	movs	r0, #16
 23fefc8:	f7fd fe42 	bl	23fcc50 <malloc>
 23fefcc:	4602      	mov	r2, r0
 23fefce:	6260      	str	r0, [r4, #36]	; 0x24
 23fefd0:	b920      	cbnz	r0, 23fefdc <_Balloc+0x20>
 23fefd2:	4b18      	ldr	r3, [pc, #96]	; (23ff034 <_Balloc+0x78>)
 23fefd4:	2166      	movs	r1, #102	; 0x66
 23fefd6:	4818      	ldr	r0, [pc, #96]	; (23ff038 <_Balloc+0x7c>)
 23fefd8:	f7fd fe72 	bl	23fccc0 <__assert_func>
 23fefdc:	e9c0 6601 	strd	r6, r6, [r0, #4]
 23fefe0:	6006      	str	r6, [r0, #0]
 23fefe2:	60c6      	str	r6, [r0, #12]
 23fefe4:	6a66      	ldr	r6, [r4, #36]	; 0x24
 23fefe6:	68f3      	ldr	r3, [r6, #12]
 23fefe8:	b183      	cbz	r3, 23ff00c <_Balloc+0x50>
 23fefea:	6a63      	ldr	r3, [r4, #36]	; 0x24
 23fefec:	68db      	ldr	r3, [r3, #12]
 23fefee:	f853 0025 	ldr.w	r0, [r3, r5, lsl #2]
 23feff2:	b9b8      	cbnz	r0, 23ff024 <_Balloc+0x68>
 23feff4:	2101      	movs	r1, #1
 23feff6:	4620      	mov	r0, r4
 23feff8:	fa01 f605 	lsl.w	r6, r1, r5
 23feffc:	1d72      	adds	r2, r6, #5
 23feffe:	0092      	lsls	r2, r2, #2
 23ff000:	f000 fca1 	bl	23ff946 <_calloc_r>
 23ff004:	b160      	cbz	r0, 23ff020 <_Balloc+0x64>
 23ff006:	e9c0 5601 	strd	r5, r6, [r0, #4]
 23ff00a:	e00e      	b.n	23ff02a <_Balloc+0x6e>
 23ff00c:	2221      	movs	r2, #33	; 0x21
 23ff00e:	2104      	movs	r1, #4
 23ff010:	4620      	mov	r0, r4
 23ff012:	f000 fc98 	bl	23ff946 <_calloc_r>
 23ff016:	6a63      	ldr	r3, [r4, #36]	; 0x24
 23ff018:	60f0      	str	r0, [r6, #12]
 23ff01a:	68db      	ldr	r3, [r3, #12]
 23ff01c:	2b00      	cmp	r3, #0
 23ff01e:	d1e4      	bne.n	23fefea <_Balloc+0x2e>
 23ff020:	2000      	movs	r0, #0
 23ff022:	bd70      	pop	{r4, r5, r6, pc}
 23ff024:	6802      	ldr	r2, [r0, #0]
 23ff026:	f843 2025 	str.w	r2, [r3, r5, lsl #2]
 23ff02a:	2300      	movs	r3, #0
 23ff02c:	e9c0 3303 	strd	r3, r3, [r0, #12]
 23ff030:	e7f7      	b.n	23ff022 <_Balloc+0x66>
 23ff032:	bf00      	nop
 23ff034:	023ffc29 	.word	0x023ffc29
 23ff038:	023ffe76 	.word	0x023ffe76

023ff03c <_Bfree>:
 23ff03c:	b570      	push	{r4, r5, r6, lr}
 23ff03e:	6a46      	ldr	r6, [r0, #36]	; 0x24
 23ff040:	4605      	mov	r5, r0
 23ff042:	460c      	mov	r4, r1
 23ff044:	b976      	cbnz	r6, 23ff064 <_Bfree+0x28>
 23ff046:	2010      	movs	r0, #16
 23ff048:	f7fd fe02 	bl	23fcc50 <malloc>
 23ff04c:	4602      	mov	r2, r0
 23ff04e:	6268      	str	r0, [r5, #36]	; 0x24
 23ff050:	b920      	cbnz	r0, 23ff05c <_Bfree+0x20>
 23ff052:	4b09      	ldr	r3, [pc, #36]	; (23ff078 <_Bfree+0x3c>)
 23ff054:	218a      	movs	r1, #138	; 0x8a
 23ff056:	4809      	ldr	r0, [pc, #36]	; (23ff07c <_Bfree+0x40>)
 23ff058:	f7fd fe32 	bl	23fccc0 <__assert_func>
 23ff05c:	e9c0 6601 	strd	r6, r6, [r0, #4]
 23ff060:	6006      	str	r6, [r0, #0]
 23ff062:	60c6      	str	r6, [r0, #12]
 23ff064:	b13c      	cbz	r4, 23ff076 <_Bfree+0x3a>
 23ff066:	6a6b      	ldr	r3, [r5, #36]	; 0x24
 23ff068:	6862      	ldr	r2, [r4, #4]
 23ff06a:	68db      	ldr	r3, [r3, #12]
 23ff06c:	f853 1022 	ldr.w	r1, [r3, r2, lsl #2]
 23ff070:	6021      	str	r1, [r4, #0]
 23ff072:	f843 4022 	str.w	r4, [r3, r2, lsl #2]
 23ff076:	bd70      	pop	{r4, r5, r6, pc}
 23ff078:	023ffc29 	.word	0x023ffc29
 23ff07c:	023ffe76 	.word	0x023ffe76

023ff080 <__multadd>:
 23ff080:	e92d 41f0 	stmdb	sp!, {r4, r5, r6, r7, r8, lr}
 23ff084:	f101 0c14 	add.w	ip, r1, #20
 23ff088:	4607      	mov	r7, r0
 23ff08a:	460c      	mov	r4, r1
 23ff08c:	461e      	mov	r6, r3
 23ff08e:	690d      	ldr	r5, [r1, #16]
 23ff090:	2000      	movs	r0, #0
 23ff092:	f8dc 3000 	ldr.w	r3, [ip]
 23ff096:	3001      	adds	r0, #1
 23ff098:	b299      	uxth	r1, r3
 23ff09a:	4285      	cmp	r5, r0
 23ff09c:	fb02 6101 	mla	r1, r2, r1, r6
 23ff0a0:	ea4f 4613 	mov.w	r6, r3, lsr #16
 23ff0a4:	ea4f 4311 	mov.w	r3, r1, lsr #16
 23ff0a8:	b289      	uxth	r1, r1
 23ff0aa:	fb02 3306 	mla	r3, r2, r6, r3
 23ff0ae:	eb01 4103 	add.w	r1, r1, r3, lsl #16
 23ff0b2:	ea4f 4613 	mov.w	r6, r3, lsr #16
 23ff0b6:	f84c 1b04 	str.w	r1, [ip], #4
 23ff0ba:	dcea      	bgt.n	23ff092 <__multadd+0x12>
 23ff0bc:	b30e      	cbz	r6, 23ff102 <__multadd+0x82>
 23ff0be:	68a3      	ldr	r3, [r4, #8]
 23ff0c0:	42ab      	cmp	r3, r5
 23ff0c2:	dc19      	bgt.n	23ff0f8 <__multadd+0x78>
 23ff0c4:	6861      	ldr	r1, [r4, #4]
 23ff0c6:	4638      	mov	r0, r7
 23ff0c8:	3101      	adds	r1, #1
 23ff0ca:	f7ff ff77 	bl	23fefbc <_Balloc>
 23ff0ce:	4680      	mov	r8, r0
 23ff0d0:	b928      	cbnz	r0, 23ff0de <__multadd+0x5e>
 23ff0d2:	4602      	mov	r2, r0
 23ff0d4:	4b0c      	ldr	r3, [pc, #48]	; (23ff108 <__multadd+0x88>)
 23ff0d6:	21b5      	movs	r1, #181	; 0xb5
 23ff0d8:	480c      	ldr	r0, [pc, #48]	; (23ff10c <__multadd+0x8c>)
 23ff0da:	f7fd fdf1 	bl	23fccc0 <__assert_func>
 23ff0de:	6922      	ldr	r2, [r4, #16]
 23ff0e0:	f104 010c 	add.w	r1, r4, #12
 23ff0e4:	300c      	adds	r0, #12
 23ff0e6:	3202      	adds	r2, #2
 23ff0e8:	0092      	lsls	r2, r2, #2
 23ff0ea:	f7fe fd66 	bl	23fdbba <memcpy>
 23ff0ee:	4621      	mov	r1, r4
 23ff0f0:	4644      	mov	r4, r8
 23ff0f2:	4638      	mov	r0, r7
 23ff0f4:	f7ff ffa2 	bl	23ff03c <_Bfree>
 23ff0f8:	eb04 0385 	add.w	r3, r4, r5, lsl #2
 23ff0fc:	3501      	adds	r5, #1
 23ff0fe:	615e      	str	r6, [r3, #20]
 23ff100:	6125      	str	r5, [r4, #16]
 23ff102:	4620      	mov	r0, r4
 23ff104:	e8bd 81f0 	ldmia.w	sp!, {r4, r5, r6, r7, r8, pc}
 23ff108:	023ffdf1 	.word	0x023ffdf1
 23ff10c:	023ffe76 	.word	0x023ffe76

023ff110 <__s2b>:
 23ff110:	e92d 43f8 	stmdb	sp!, {r3, r4, r5, r6, r7, r8, r9, lr}
 23ff114:	4615      	mov	r5, r2
 23ff116:	461f      	mov	r7, r3
 23ff118:	2209      	movs	r2, #9
 23ff11a:	3308      	adds	r3, #8
 23ff11c:	460c      	mov	r4, r1
 23ff11e:	4606      	mov	r6, r0
 23ff120:	2100      	movs	r1, #0
 23ff122:	fb93 f3f2 	sdiv	r3, r3, r2
 23ff126:	2201      	movs	r2, #1
 23ff128:	429a      	cmp	r2, r3
 23ff12a:	db09      	blt.n	23ff140 <__s2b+0x30>
 23ff12c:	4630      	mov	r0, r6
 23ff12e:	f7ff ff45 	bl	23fefbc <_Balloc>
 23ff132:	b940      	cbnz	r0, 23ff146 <__s2b+0x36>
 23ff134:	4602      	mov	r2, r0
 23ff136:	4b19      	ldr	r3, [pc, #100]	; (23ff19c <__s2b+0x8c>)
 23ff138:	21ce      	movs	r1, #206	; 0xce
 23ff13a:	4819      	ldr	r0, [pc, #100]	; (23ff1a0 <__s2b+0x90>)
 23ff13c:	f7fd fdc0 	bl	23fccc0 <__assert_func>
 23ff140:	0052      	lsls	r2, r2, #1
 23ff142:	3101      	adds	r1, #1
 23ff144:	e7f0      	b.n	23ff128 <__s2b+0x18>
 23ff146:	9b08      	ldr	r3, [sp, #32]
 23ff148:	2d09      	cmp	r5, #9
 23ff14a:	6143      	str	r3, [r0, #20]
 23ff14c:	f04f 0301 	mov.w	r3, #1
 23ff150:	6103      	str	r3, [r0, #16]
 23ff152:	dd16      	ble.n	23ff182 <__s2b+0x72>
 23ff154:	f104 0909 	add.w	r9, r4, #9
 23ff158:	442c      	add	r4, r5
 23ff15a:	46c8      	mov	r8, r9
 23ff15c:	f818 3b01 	ldrb.w	r3, [r8], #1
 23ff160:	4601      	mov	r1, r0
 23ff162:	220a      	movs	r2, #10
 23ff164:	4630      	mov	r0, r6
 23ff166:	3b30      	subs	r3, #48	; 0x30
 23ff168:	f7ff ff8a 	bl	23ff080 <__multadd>
 23ff16c:	45a0      	cmp	r8, r4
 23ff16e:	d1f5      	bne.n	23ff15c <__s2b+0x4c>
 23ff170:	f1a5 0408 	sub.w	r4, r5, #8
 23ff174:	444c      	add	r4, r9
 23ff176:	1b2d      	subs	r5, r5, r4
 23ff178:	1963      	adds	r3, r4, r5
 23ff17a:	42bb      	cmp	r3, r7
 23ff17c:	db04      	blt.n	23ff188 <__s2b+0x78>
 23ff17e:	e8bd 83f8 	ldmia.w	sp!, {r3, r4, r5, r6, r7, r8, r9, pc}
 23ff182:	340a      	adds	r4, #10
 23ff184:	2509      	movs	r5, #9
 23ff186:	e7f6      	b.n	23ff176 <__s2b+0x66>
 23ff188:	f814 3b01 	ldrb.w	r3, [r4], #1
 23ff18c:	4601      	mov	r1, r0
 23ff18e:	220a      	movs	r2, #10
 23ff190:	4630      	mov	r0, r6
 23ff192:	3b30      	subs	r3, #48	; 0x30
 23ff194:	f7ff ff74 	bl	23ff080 <__multadd>
 23ff198:	e7ee      	b.n	23ff178 <__s2b+0x68>
 23ff19a:	bf00      	nop
 23ff19c:	023ffdf1 	.word	0x023ffdf1
 23ff1a0:	023ffe76 	.word	0x023ffe76

023ff1a4 <__hi0bits>:
 23ff1a4:	0c03      	lsrs	r3, r0, #16
 23ff1a6:	041b      	lsls	r3, r3, #16
 23ff1a8:	b9d3      	cbnz	r3, 23ff1e0 <__hi0bits+0x3c>
 23ff1aa:	0400      	lsls	r0, r0, #16
 23ff1ac:	2310      	movs	r3, #16
 23ff1ae:	f010 4f7f 	tst.w	r0, #4278190080	; 0xff000000
 23ff1b2:	bf04      	itt	eq
 23ff1b4:	0200      	lsleq	r0, r0, #8
 23ff1b6:	3308      	addeq	r3, #8
 23ff1b8:	f010 4f70 	tst.w	r0, #4026531840	; 0xf0000000
 23ff1bc:	bf04      	itt	eq
 23ff1be:	0100      	lsleq	r0, r0, #4
 23ff1c0:	3304      	addeq	r3, #4
 23ff1c2:	f010 4f40 	tst.w	r0, #3221225472	; 0xc0000000
 23ff1c6:	bf04      	itt	eq
 23ff1c8:	0080      	lsleq	r0, r0, #2
 23ff1ca:	3302      	addeq	r3, #2
 23ff1cc:	2800      	cmp	r0, #0
 23ff1ce:	db05      	blt.n	23ff1dc <__hi0bits+0x38>
 23ff1d0:	f010 4f80 	tst.w	r0, #1073741824	; 0x40000000
 23ff1d4:	f103 0301 	add.w	r3, r3, #1
 23ff1d8:	bf08      	it	eq
 23ff1da:	2320      	moveq	r3, #32
 23ff1dc:	4618      	mov	r0, r3
 23ff1de:	4770      	bx	lr
 23ff1e0:	2300      	movs	r3, #0
 23ff1e2:	e7e4      	b.n	23ff1ae <__hi0bits+0xa>

023ff1e4 <__lo0bits>:
 23ff1e4:	6803      	ldr	r3, [r0, #0]
 23ff1e6:	4601      	mov	r1, r0
 23ff1e8:	f013 0207 	ands.w	r2, r3, #7
 23ff1ec:	d00b      	beq.n	23ff206 <__lo0bits+0x22>
 23ff1ee:	07da      	lsls	r2, r3, #31
 23ff1f0:	d423      	bmi.n	23ff23a <__lo0bits+0x56>
 23ff1f2:	0798      	lsls	r0, r3, #30
 23ff1f4:	bf47      	ittee	mi
 23ff1f6:	085b      	lsrmi	r3, r3, #1
 23ff1f8:	2001      	movmi	r0, #1
 23ff1fa:	089b      	lsrpl	r3, r3, #2
 23ff1fc:	2002      	movpl	r0, #2
 23ff1fe:	bf4c      	ite	mi
 23ff200:	600b      	strmi	r3, [r1, #0]
 23ff202:	600b      	strpl	r3, [r1, #0]
 23ff204:	4770      	bx	lr
 23ff206:	b298      	uxth	r0, r3
 23ff208:	b9a8      	cbnz	r0, 23ff236 <__lo0bits+0x52>
 23ff20a:	0c1b      	lsrs	r3, r3, #16
 23ff20c:	2010      	movs	r0, #16
 23ff20e:	b2da      	uxtb	r2, r3
 23ff210:	b90a      	cbnz	r2, 23ff216 <__lo0bits+0x32>
 23ff212:	3008      	adds	r0, #8
 23ff214:	0a1b      	lsrs	r3, r3, #8
 23ff216:	071a      	lsls	r2, r3, #28
 23ff218:	bf04      	itt	eq
 23ff21a:	091b      	lsreq	r3, r3, #4
 23ff21c:	3004      	addeq	r0, #4
 23ff21e:	079a      	lsls	r2, r3, #30
 23ff220:	bf04      	itt	eq
 23ff222:	089b      	lsreq	r3, r3, #2
 23ff224:	3002      	addeq	r0, #2
 23ff226:	07da      	lsls	r2, r3, #31
 23ff228:	d403      	bmi.n	23ff232 <__lo0bits+0x4e>
 23ff22a:	085b      	lsrs	r3, r3, #1
 23ff22c:	f100 0001 	add.w	r0, r0, #1
 23ff230:	d005      	beq.n	23ff23e <__lo0bits+0x5a>
 23ff232:	600b      	str	r3, [r1, #0]
 23ff234:	4770      	bx	lr
 23ff236:	4610      	mov	r0, r2
 23ff238:	e7e9      	b.n	23ff20e <__lo0bits+0x2a>
 23ff23a:	2000      	movs	r0, #0
 23ff23c:	4770      	bx	lr
 23ff23e:	2020      	movs	r0, #32
 23ff240:	4770      	bx	lr
	...

023ff244 <__i2b>:
 23ff244:	b510      	push	{r4, lr}
 23ff246:	460c      	mov	r4, r1
 23ff248:	2101      	movs	r1, #1
 23ff24a:	f7ff feb7 	bl	23fefbc <_Balloc>
 23ff24e:	4602      	mov	r2, r0
 23ff250:	b928      	cbnz	r0, 23ff25e <__i2b+0x1a>
 23ff252:	4b05      	ldr	r3, [pc, #20]	; (23ff268 <__i2b+0x24>)
 23ff254:	f44f 71a0 	mov.w	r1, #320	; 0x140
 23ff258:	4804      	ldr	r0, [pc, #16]	; (23ff26c <__i2b+0x28>)
 23ff25a:	f7fd fd31 	bl	23fccc0 <__assert_func>
 23ff25e:	2301      	movs	r3, #1
 23ff260:	6144      	str	r4, [r0, #20]
 23ff262:	6103      	str	r3, [r0, #16]
 23ff264:	bd10      	pop	{r4, pc}
 23ff266:	bf00      	nop
 23ff268:	023ffdf1 	.word	0x023ffdf1
 23ff26c:	023ffe76 	.word	0x023ffe76

023ff270 <__multiply>:
 23ff270:	e92d 4ff0 	stmdb	sp!, {r4, r5, r6, r7, r8, r9, sl, fp, lr}
 23ff274:	4691      	mov	r9, r2
 23ff276:	690a      	ldr	r2, [r1, #16]
 23ff278:	460c      	mov	r4, r1
 23ff27a:	b085      	sub	sp, #20
 23ff27c:	f8d9 3010 	ldr.w	r3, [r9, #16]
 23ff280:	429a      	cmp	r2, r3
 23ff282:	bfbe      	ittt	lt
 23ff284:	460b      	movlt	r3, r1
 23ff286:	464c      	movlt	r4, r9
 23ff288:	4699      	movlt	r9, r3
 23ff28a:	6927      	ldr	r7, [r4, #16]
 23ff28c:	68a3      	ldr	r3, [r4, #8]
 23ff28e:	f8d9 a010 	ldr.w	sl, [r9, #16]
 23ff292:	6861      	ldr	r1, [r4, #4]
 23ff294:	eb07 060a 	add.w	r6, r7, sl
 23ff298:	42b3      	cmp	r3, r6
 23ff29a:	bfb8      	it	lt
 23ff29c:	3101      	addlt	r1, #1
 23ff29e:	f7ff fe8d 	bl	23fefbc <_Balloc>
 23ff2a2:	b930      	cbnz	r0, 23ff2b2 <__multiply+0x42>
 23ff2a4:	4602      	mov	r2, r0
 23ff2a6:	4b44      	ldr	r3, [pc, #272]	; (23ff3b8 <__multiply+0x148>)
 23ff2a8:	f240 115d 	movw	r1, #349	; 0x15d
 23ff2ac:	4843      	ldr	r0, [pc, #268]	; (23ff3bc <__multiply+0x14c>)
 23ff2ae:	f7fd fd07 	bl	23fccc0 <__assert_func>
 23ff2b2:	f100 0514 	add.w	r5, r0, #20
 23ff2b6:	2200      	movs	r2, #0
 23ff2b8:	eb05 0886 	add.w	r8, r5, r6, lsl #2
 23ff2bc:	462b      	mov	r3, r5
 23ff2be:	4543      	cmp	r3, r8
 23ff2c0:	d321      	bcc.n	23ff306 <__multiply+0x96>
 23ff2c2:	f104 0314 	add.w	r3, r4, #20
 23ff2c6:	f104 0115 	add.w	r1, r4, #21
 23ff2ca:	eb03 0787 	add.w	r7, r3, r7, lsl #2
 23ff2ce:	f109 0314 	add.w	r3, r9, #20
 23ff2d2:	eb03 028a 	add.w	r2, r3, sl, lsl #2
 23ff2d6:	9202      	str	r2, [sp, #8]
 23ff2d8:	1b3a      	subs	r2, r7, r4
 23ff2da:	3a15      	subs	r2, #21
 23ff2dc:	f022 0203 	bic.w	r2, r2, #3
 23ff2e0:	3204      	adds	r2, #4
 23ff2e2:	428f      	cmp	r7, r1
 23ff2e4:	bf38      	it	cc
 23ff2e6:	2204      	movcc	r2, #4
 23ff2e8:	9201      	str	r2, [sp, #4]
 23ff2ea:	9a02      	ldr	r2, [sp, #8]
 23ff2ec:	9303      	str	r3, [sp, #12]
 23ff2ee:	429a      	cmp	r2, r3
 23ff2f0:	d80c      	bhi.n	23ff30c <__multiply+0x9c>
 23ff2f2:	2e00      	cmp	r6, #0
 23ff2f4:	dd03      	ble.n	23ff2fe <__multiply+0x8e>
 23ff2f6:	f858 3d04 	ldr.w	r3, [r8, #-4]!
 23ff2fa:	2b00      	cmp	r3, #0
 23ff2fc:	d05a      	beq.n	23ff3b4 <__multiply+0x144>
 23ff2fe:	6106      	str	r6, [r0, #16]
 23ff300:	b005      	add	sp, #20
 23ff302:	e8bd 8ff0 	ldmia.w	sp!, {r4, r5, r6, r7, r8, r9, sl, fp, pc}
 23ff306:	f843 2b04 	str.w	r2, [r3], #4
 23ff30a:	e7d8      	b.n	23ff2be <__multiply+0x4e>
 23ff30c:	f8b3 a000 	ldrh.w	sl, [r3]
 23ff310:	f1ba 0f00 	cmp.w	sl, #0
 23ff314:	d024      	beq.n	23ff360 <__multiply+0xf0>
 23ff316:	f104 0e14 	add.w	lr, r4, #20
 23ff31a:	46a9      	mov	r9, r5
 23ff31c:	f04f 0c00 	mov.w	ip, #0
 23ff320:	f85e 2b04 	ldr.w	r2, [lr], #4
 23ff324:	f8d9 1000 	ldr.w	r1, [r9]
 23ff328:	fa1f fb82 	uxth.w	fp, r2
 23ff32c:	4577      	cmp	r7, lr
 23ff32e:	b289      	uxth	r1, r1
 23ff330:	fb0a 110b 	mla	r1, sl, fp, r1
 23ff334:	ea4f 4b12 	mov.w	fp, r2, lsr #16
 23ff338:	f8d9 2000 	ldr.w	r2, [r9]
 23ff33c:	4461      	add	r1, ip
 23ff33e:	ea4f 4c12 	mov.w	ip, r2, lsr #16
 23ff342:	fb0a c20b 	mla	r2, sl, fp, ip
 23ff346:	eb02 4211 	add.w	r2, r2, r1, lsr #16
 23ff34a:	b289      	uxth	r1, r1
 23ff34c:	ea4f 4c12 	mov.w	ip, r2, lsr #16
 23ff350:	ea41 4102 	orr.w	r1, r1, r2, lsl #16
 23ff354:	f849 1b04 	str.w	r1, [r9], #4
 23ff358:	d8e2      	bhi.n	23ff320 <__multiply+0xb0>
 23ff35a:	9a01      	ldr	r2, [sp, #4]
 23ff35c:	f845 c002 	str.w	ip, [r5, r2]
 23ff360:	9a03      	ldr	r2, [sp, #12]
 23ff362:	3304      	adds	r3, #4
 23ff364:	f8b2 9002 	ldrh.w	r9, [r2, #2]
 23ff368:	f1b9 0f00 	cmp.w	r9, #0
 23ff36c:	d020      	beq.n	23ff3b0 <__multiply+0x140>
 23ff36e:	6829      	ldr	r1, [r5, #0]
 23ff370:	f104 0c14 	add.w	ip, r4, #20
 23ff374:	46ae      	mov	lr, r5
 23ff376:	f04f 0a00 	mov.w	sl, #0
 23ff37a:	f8bc b000 	ldrh.w	fp, [ip]
 23ff37e:	b289      	uxth	r1, r1
 23ff380:	f8be 2002 	ldrh.w	r2, [lr, #2]
 23ff384:	fb09 220b 	mla	r2, r9, fp, r2
 23ff388:	4492      	add	sl, r2
 23ff38a:	ea41 410a 	orr.w	r1, r1, sl, lsl #16
 23ff38e:	f84e 1b04 	str.w	r1, [lr], #4
 23ff392:	f85c 2b04 	ldr.w	r2, [ip], #4
 23ff396:	f8be 1000 	ldrh.w	r1, [lr]
 23ff39a:	0c12      	lsrs	r2, r2, #16
 23ff39c:	4567      	cmp	r7, ip
 23ff39e:	fb09 1102 	mla	r1, r9, r2, r1
 23ff3a2:	eb01 411a 	add.w	r1, r1, sl, lsr #16
 23ff3a6:	ea4f 4a11 	mov.w	sl, r1, lsr #16
 23ff3aa:	d8e6      	bhi.n	23ff37a <__multiply+0x10a>
 23ff3ac:	9a01      	ldr	r2, [sp, #4]
 23ff3ae:	50a9      	str	r1, [r5, r2]
 23ff3b0:	3504      	adds	r5, #4
 23ff3b2:	e79a      	b.n	23ff2ea <__multiply+0x7a>
 23ff3b4:	3e01      	subs	r6, #1
 23ff3b6:	e79c      	b.n	23ff2f2 <__multiply+0x82>
 23ff3b8:	023ffdf1 	.word	0x023ffdf1
 23ff3bc:	023ffe76 	.word	0x023ffe76

023ff3c0 <__pow5mult>:
 23ff3c0:	e92d 43f8 	stmdb	sp!, {r3, r4, r5, r6, r7, r8, r9, lr}
 23ff3c4:	4615      	mov	r5, r2
 23ff3c6:	f012 0203 	ands.w	r2, r2, #3
 23ff3ca:	4606      	mov	r6, r0
 23ff3cc:	460f      	mov	r7, r1
 23ff3ce:	d007      	beq.n	23ff3e0 <__pow5mult+0x20>
 23ff3d0:	3a01      	subs	r2, #1
 23ff3d2:	4c25      	ldr	r4, [pc, #148]	; (23ff468 <__pow5mult+0xa8>)
 23ff3d4:	2300      	movs	r3, #0
 23ff3d6:	f854 2022 	ldr.w	r2, [r4, r2, lsl #2]
 23ff3da:	f7ff fe51 	bl	23ff080 <__multadd>
 23ff3de:	4607      	mov	r7, r0
 23ff3e0:	10ad      	asrs	r5, r5, #2
 23ff3e2:	d03d      	beq.n	23ff460 <__pow5mult+0xa0>
 23ff3e4:	6a74      	ldr	r4, [r6, #36]	; 0x24
 23ff3e6:	b97c      	cbnz	r4, 23ff408 <__pow5mult+0x48>
 23ff3e8:	2010      	movs	r0, #16
 23ff3ea:	f7fd fc31 	bl	23fcc50 <malloc>
 23ff3ee:	4602      	mov	r2, r0
 23ff3f0:	6270      	str	r0, [r6, #36]	; 0x24
 23ff3f2:	b928      	cbnz	r0, 23ff400 <__pow5mult+0x40>
 23ff3f4:	4b1d      	ldr	r3, [pc, #116]	; (23ff46c <__pow5mult+0xac>)
 23ff3f6:	f44f 71d7 	mov.w	r1, #430	; 0x1ae
 23ff3fa:	481d      	ldr	r0, [pc, #116]	; (23ff470 <__pow5mult+0xb0>)
 23ff3fc:	f7fd fc60 	bl	23fccc0 <__assert_func>
 23ff400:	e9c0 4401 	strd	r4, r4, [r0, #4]
 23ff404:	6004      	str	r4, [r0, #0]
 23ff406:	60c4      	str	r4, [r0, #12]
 23ff408:	f8d6 8024 	ldr.w	r8, [r6, #36]	; 0x24
 23ff40c:	f8d8 4008 	ldr.w	r4, [r8, #8]
 23ff410:	b94c      	cbnz	r4, 23ff426 <__pow5mult+0x66>
 23ff412:	f240 2171 	movw	r1, #625	; 0x271
 23ff416:	4630      	mov	r0, r6
 23ff418:	f7ff ff14 	bl	23ff244 <__i2b>
 23ff41c:	2300      	movs	r3, #0
 23ff41e:	4604      	mov	r4, r0
 23ff420:	f8c8 0008 	str.w	r0, [r8, #8]
 23ff424:	6003      	str	r3, [r0, #0]
 23ff426:	f04f 0900 	mov.w	r9, #0
 23ff42a:	07eb      	lsls	r3, r5, #31
 23ff42c:	d50a      	bpl.n	23ff444 <__pow5mult+0x84>
 23ff42e:	4639      	mov	r1, r7
 23ff430:	4622      	mov	r2, r4
 23ff432:	4630      	mov	r0, r6
 23ff434:	f7ff ff1c 	bl	23ff270 <__multiply>
 23ff438:	4680      	mov	r8, r0
 23ff43a:	4639      	mov	r1, r7
 23ff43c:	4630      	mov	r0, r6
 23ff43e:	4647      	mov	r7, r8
 23ff440:	f7ff fdfc 	bl	23ff03c <_Bfree>
 23ff444:	106d      	asrs	r5, r5, #1
 23ff446:	d00b      	beq.n	23ff460 <__pow5mult+0xa0>
 23ff448:	6820      	ldr	r0, [r4, #0]
 23ff44a:	b938      	cbnz	r0, 23ff45c <__pow5mult+0x9c>
 23ff44c:	4622      	mov	r2, r4
 23ff44e:	4621      	mov	r1, r4
 23ff450:	4630      	mov	r0, r6
 23ff452:	f7ff ff0d 	bl	23ff270 <__multiply>
 23ff456:	6020      	str	r0, [r4, #0]
 23ff458:	f8c0 9000 	str.w	r9, [r0]
 23ff45c:	4604      	mov	r4, r0
 23ff45e:	e7e4      	b.n	23ff42a <__pow5mult+0x6a>
 23ff460:	4638      	mov	r0, r7
 23ff462:	e8bd 83f8 	ldmia.w	sp!, {r3, r4, r5, r6, r7, r8, r9, pc}
 23ff466:	bf00      	nop
 23ff468:	023fffc0 	.word	0x023fffc0
 23ff46c:	023ffc29 	.word	0x023ffc29
 23ff470:	023ffe76 	.word	0x023ffe76

023ff474 <__lshift>:
 23ff474:	e92d 47f0 	stmdb	sp!, {r4, r5, r6, r7, r8, r9, sl, lr}
 23ff478:	460c      	mov	r4, r1
 23ff47a:	4607      	mov	r7, r0
 23ff47c:	4691      	mov	r9, r2
 23ff47e:	ea4f 1a62 	mov.w	sl, r2, asr #5
 23ff482:	6923      	ldr	r3, [r4, #16]
 23ff484:	6849      	ldr	r1, [r1, #4]
 23ff486:	eb03 1862 	add.w	r8, r3, r2, asr #5
 23ff48a:	68a3      	ldr	r3, [r4, #8]
 23ff48c:	f108 0601 	add.w	r6, r8, #1
 23ff490:	42b3      	cmp	r3, r6
 23ff492:	db0b      	blt.n	23ff4ac <__lshift+0x38>
 23ff494:	4638      	mov	r0, r7
 23ff496:	f7ff fd91 	bl	23fefbc <_Balloc>
 23ff49a:	4605      	mov	r5, r0
 23ff49c:	b948      	cbnz	r0, 23ff4b2 <__lshift+0x3e>
 23ff49e:	4602      	mov	r2, r0
 23ff4a0:	4b2a      	ldr	r3, [pc, #168]	; (23ff54c <__lshift+0xd8>)
 23ff4a2:	f240 11d9 	movw	r1, #473	; 0x1d9
 23ff4a6:	482a      	ldr	r0, [pc, #168]	; (23ff550 <__lshift+0xdc>)
 23ff4a8:	f7fd fc0a 	bl	23fccc0 <__assert_func>
 23ff4ac:	3101      	adds	r1, #1
 23ff4ae:	005b      	lsls	r3, r3, #1
 23ff4b0:	e7ee      	b.n	23ff490 <__lshift+0x1c>
 23ff4b2:	2300      	movs	r3, #0
 23ff4b4:	f100 0114 	add.w	r1, r0, #20
 23ff4b8:	f100 0210 	add.w	r2, r0, #16
 23ff4bc:	4618      	mov	r0, r3
 23ff4be:	4553      	cmp	r3, sl
 23ff4c0:	db37      	blt.n	23ff532 <__lshift+0xbe>
 23ff4c2:	ea2a 7aea 	bic.w	sl, sl, sl, asr #31
 23ff4c6:	f104 0314 	add.w	r3, r4, #20
 23ff4ca:	6920      	ldr	r0, [r4, #16]
 23ff4cc:	f019 091f 	ands.w	r9, r9, #31
 23ff4d0:	eb01 018a 	add.w	r1, r1, sl, lsl #2
 23ff4d4:	eb03 0080 	add.w	r0, r3, r0, lsl #2
 23ff4d8:	d02f      	beq.n	23ff53a <__lshift+0xc6>
 23ff4da:	f1c9 0e20 	rsb	lr, r9, #32
 23ff4de:	468a      	mov	sl, r1
 23ff4e0:	f04f 0c00 	mov.w	ip, #0
 23ff4e4:	681a      	ldr	r2, [r3, #0]
 23ff4e6:	fa02 f209 	lsl.w	r2, r2, r9
 23ff4ea:	ea42 020c 	orr.w	r2, r2, ip
 23ff4ee:	f84a 2b04 	str.w	r2, [sl], #4
 23ff4f2:	f853 2b04 	ldr.w	r2, [r3], #4
 23ff4f6:	4298      	cmp	r0, r3
 23ff4f8:	fa22 fc0e 	lsr.w	ip, r2, lr
 23ff4fc:	d8f2      	bhi.n	23ff4e4 <__lshift+0x70>
 23ff4fe:	1b03      	subs	r3, r0, r4
 23ff500:	f104 0215 	add.w	r2, r4, #21
 23ff504:	3b15      	subs	r3, #21
 23ff506:	f023 0303 	bic.w	r3, r3, #3
 23ff50a:	3304      	adds	r3, #4
 23ff50c:	4290      	cmp	r0, r2
 23ff50e:	bf38      	it	cc
 23ff510:	2304      	movcc	r3, #4
 23ff512:	f841 c003 	str.w	ip, [r1, r3]
 23ff516:	f1bc 0f00 	cmp.w	ip, #0
 23ff51a:	d001      	beq.n	23ff520 <__lshift+0xac>
 23ff51c:	f108 0602 	add.w	r6, r8, #2
 23ff520:	3e01      	subs	r6, #1
 23ff522:	4638      	mov	r0, r7
 23ff524:	4621      	mov	r1, r4
 23ff526:	612e      	str	r6, [r5, #16]
 23ff528:	f7ff fd88 	bl	23ff03c <_Bfree>
 23ff52c:	4628      	mov	r0, r5
 23ff52e:	e8bd 87f0 	ldmia.w	sp!, {r4, r5, r6, r7, r8, r9, sl, pc}
 23ff532:	3301      	adds	r3, #1
 23ff534:	f842 0f04 	str.w	r0, [r2, #4]!
 23ff538:	e7c1      	b.n	23ff4be <__lshift+0x4a>
 23ff53a:	3904      	subs	r1, #4
 23ff53c:	f853 2b04 	ldr.w	r2, [r3], #4
 23ff540:	4298      	cmp	r0, r3
 23ff542:	f841 2f04 	str.w	r2, [r1, #4]!
 23ff546:	d8f9      	bhi.n	23ff53c <__lshift+0xc8>
 23ff548:	e7ea      	b.n	23ff520 <__lshift+0xac>
 23ff54a:	bf00      	nop
 23ff54c:	023ffdf1 	.word	0x023ffdf1
 23ff550:	023ffe76 	.word	0x023ffe76

023ff554 <__mcmp>:
 23ff554:	6902      	ldr	r2, [r0, #16]
 23ff556:	b530      	push	{r4, r5, lr}
 23ff558:	690c      	ldr	r4, [r1, #16]
 23ff55a:	1b12      	subs	r2, r2, r4
 23ff55c:	d10e      	bne.n	23ff57c <__mcmp+0x28>
 23ff55e:	f100 0314 	add.w	r3, r0, #20
 23ff562:	3114      	adds	r1, #20
 23ff564:	eb03 0084 	add.w	r0, r3, r4, lsl #2
 23ff568:	eb01 0184 	add.w	r1, r1, r4, lsl #2
 23ff56c:	f850 5d04 	ldr.w	r5, [r0, #-4]!
 23ff570:	f851 4d04 	ldr.w	r4, [r1, #-4]!
 23ff574:	42a5      	cmp	r5, r4
 23ff576:	d003      	beq.n	23ff580 <__mcmp+0x2c>
 23ff578:	d305      	bcc.n	23ff586 <__mcmp+0x32>
 23ff57a:	2201      	movs	r2, #1
 23ff57c:	4610      	mov	r0, r2
 23ff57e:	bd30      	pop	{r4, r5, pc}
 23ff580:	4283      	cmp	r3, r0
 23ff582:	d3f3      	bcc.n	23ff56c <__mcmp+0x18>
 23ff584:	e7fa      	b.n	23ff57c <__mcmp+0x28>
 23ff586:	f04f 32ff 	mov.w	r2, #4294967295	; 0xffffffff
 23ff58a:	e7f7      	b.n	23ff57c <__mcmp+0x28>

023ff58c <__mdiff>:
 23ff58c:	e92d 4ff8 	stmdb	sp!, {r3, r4, r5, r6, r7, r8, r9, sl, fp, lr}
 23ff590:	460c      	mov	r4, r1
 23ff592:	4606      	mov	r6, r0
 23ff594:	4611      	mov	r1, r2
 23ff596:	4692      	mov	sl, r2
 23ff598:	4620      	mov	r0, r4
 23ff59a:	f7ff ffdb 	bl	23ff554 <__mcmp>
 23ff59e:	1e05      	subs	r5, r0, #0
 23ff5a0:	d110      	bne.n	23ff5c4 <__mdiff+0x38>
 23ff5a2:	4629      	mov	r1, r5
 23ff5a4:	4630      	mov	r0, r6
 23ff5a6:	f7ff fd09 	bl	23fefbc <_Balloc>
 23ff5aa:	b930      	cbnz	r0, 23ff5ba <__mdiff+0x2e>
 23ff5ac:	4b3d      	ldr	r3, [pc, #244]	; (23ff6a4 <__mdiff+0x118>)
 23ff5ae:	4602      	mov	r2, r0
 23ff5b0:	f240 2132 	movw	r1, #562	; 0x232
 23ff5b4:	483c      	ldr	r0, [pc, #240]	; (23ff6a8 <__mdiff+0x11c>)
 23ff5b6:	f7fd fb83 	bl	23fccc0 <__assert_func>
 23ff5ba:	2301      	movs	r3, #1
 23ff5bc:	e9c0 3504 	strd	r3, r5, [r0, #16]
 23ff5c0:	e8bd 8ff8 	ldmia.w	sp!, {r3, r4, r5, r6, r7, r8, r9, sl, fp, pc}
 23ff5c4:	bfa4      	itt	ge
 23ff5c6:	4653      	movge	r3, sl
 23ff5c8:	46a2      	movge	sl, r4
 23ff5ca:	4630      	mov	r0, r6
 23ff5cc:	bfa8      	it	ge
 23ff5ce:	2500      	movge	r5, #0
 23ff5d0:	f8da 1004 	ldr.w	r1, [sl, #4]
 23ff5d4:	bfac      	ite	ge
 23ff5d6:	461c      	movge	r4, r3
 23ff5d8:	2501      	movlt	r5, #1
 23ff5da:	f7ff fcef 	bl	23fefbc <_Balloc>
 23ff5de:	b920      	cbnz	r0, 23ff5ea <__mdiff+0x5e>
 23ff5e0:	4b30      	ldr	r3, [pc, #192]	; (23ff6a4 <__mdiff+0x118>)
 23ff5e2:	4602      	mov	r2, r0
 23ff5e4:	f44f 7110 	mov.w	r1, #576	; 0x240
 23ff5e8:	e7e4      	b.n	23ff5b4 <__mdiff+0x28>
 23ff5ea:	f8da 7010 	ldr.w	r7, [sl, #16]
 23ff5ee:	f104 0914 	add.w	r9, r4, #20
 23ff5f2:	6926      	ldr	r6, [r4, #16]
 23ff5f4:	f100 0814 	add.w	r8, r0, #20
 23ff5f8:	60c5      	str	r5, [r0, #12]
 23ff5fa:	f10a 0514 	add.w	r5, sl, #20
 23ff5fe:	f10a 0210 	add.w	r2, sl, #16
 23ff602:	eb09 0686 	add.w	r6, r9, r6, lsl #2
 23ff606:	eb05 0e87 	add.w	lr, r5, r7, lsl #2
 23ff60a:	46c2      	mov	sl, r8
 23ff60c:	f04f 0c00 	mov.w	ip, #0
 23ff610:	f852 bf04 	ldr.w	fp, [r2, #4]!
 23ff614:	f859 3b04 	ldr.w	r3, [r9], #4
 23ff618:	fa1f f18b 	uxth.w	r1, fp
 23ff61c:	454e      	cmp	r6, r9
 23ff61e:	448c      	add	ip, r1
 23ff620:	b299      	uxth	r1, r3
 23ff622:	ea4f 4313 	mov.w	r3, r3, lsr #16
 23ff626:	ebac 0101 	sub.w	r1, ip, r1
 23ff62a:	ebc3 431b 	rsb	r3, r3, fp, lsr #16
 23ff62e:	eb03 4321 	add.w	r3, r3, r1, asr #16
 23ff632:	b289      	uxth	r1, r1
 23ff634:	ea4f 4c23 	mov.w	ip, r3, asr #16
 23ff638:	ea41 4303 	orr.w	r3, r1, r3, lsl #16
 23ff63c:	f84a 3b04 	str.w	r3, [sl], #4
 23ff640:	d8e6      	bhi.n	23ff610 <__mdiff+0x84>
 23ff642:	1b33      	subs	r3, r6, r4
 23ff644:	3415      	adds	r4, #21
 23ff646:	3b15      	subs	r3, #21
 23ff648:	f023 0303 	bic.w	r3, r3, #3
 23ff64c:	3304      	adds	r3, #4
 23ff64e:	42a6      	cmp	r6, r4
 23ff650:	bf38      	it	cc
 23ff652:	2304      	movcc	r3, #4
 23ff654:	441d      	add	r5, r3
 23ff656:	4443      	add	r3, r8
 23ff658:	462c      	mov	r4, r5
 23ff65a:	461e      	mov	r6, r3
 23ff65c:	4574      	cmp	r4, lr
 23ff65e:	d30e      	bcc.n	23ff67e <__mdiff+0xf2>
 23ff660:	f10e 0203 	add.w	r2, lr, #3
 23ff664:	1b52      	subs	r2, r2, r5
 23ff666:	3d03      	subs	r5, #3
 23ff668:	f022 0203 	bic.w	r2, r2, #3
 23ff66c:	45ae      	cmp	lr, r5
 23ff66e:	bf38      	it	cc
 23ff670:	2200      	movcc	r2, #0
 23ff672:	441a      	add	r2, r3
 23ff674:	f852 3d04 	ldr.w	r3, [r2, #-4]!
 23ff678:	b18b      	cbz	r3, 23ff69e <__mdiff+0x112>
 23ff67a:	6107      	str	r7, [r0, #16]
 23ff67c:	e7a0      	b.n	23ff5c0 <__mdiff+0x34>
 23ff67e:	f854 8b04 	ldr.w	r8, [r4], #4
 23ff682:	fa1f f288 	uxth.w	r2, r8
 23ff686:	4462      	add	r2, ip
 23ff688:	1411      	asrs	r1, r2, #16
 23ff68a:	b292      	uxth	r2, r2
 23ff68c:	eb01 4118 	add.w	r1, r1, r8, lsr #16
 23ff690:	ea42 4201 	orr.w	r2, r2, r1, lsl #16
 23ff694:	ea4f 4c21 	mov.w	ip, r1, asr #16
 23ff698:	f846 2b04 	str.w	r2, [r6], #4
 23ff69c:	e7de      	b.n	23ff65c <__mdiff+0xd0>
 23ff69e:	3f01      	subs	r7, #1
 23ff6a0:	e7e8      	b.n	23ff674 <__mdiff+0xe8>
 23ff6a2:	bf00      	nop
 23ff6a4:	023ffdf1 	.word	0x023ffdf1
 23ff6a8:	023ffe76 	.word	0x023ffe76

023ff6ac <__ulp>:
 23ff6ac:	b082      	sub	sp, #8
 23ff6ae:	4913      	ldr	r1, [pc, #76]	; (23ff6fc <__ulp+0x50>)
 23ff6b0:	ed8d 0b00 	vstr	d0, [sp]
 23ff6b4:	9b01      	ldr	r3, [sp, #4]
 23ff6b6:	4019      	ands	r1, r3
 23ff6b8:	f1a1 7150 	sub.w	r1, r1, #54525952	; 0x3400000
 23ff6bc:	2900      	cmp	r1, #0
 23ff6be:	dd05      	ble.n	23ff6cc <__ulp+0x20>
 23ff6c0:	2200      	movs	r2, #0
 23ff6c2:	460b      	mov	r3, r1
 23ff6c4:	ec43 2b10 	vmov	d0, r2, r3
 23ff6c8:	b002      	add	sp, #8
 23ff6ca:	4770      	bx	lr
 23ff6cc:	4249      	negs	r1, r1
 23ff6ce:	2200      	movs	r2, #0
 23ff6d0:	2300      	movs	r3, #0
 23ff6d2:	f1b1 7fa0 	cmp.w	r1, #20971520	; 0x1400000
 23ff6d6:	ea4f 5021 	mov.w	r0, r1, asr #20
 23ff6da:	da04      	bge.n	23ff6e6 <__ulp+0x3a>
 23ff6dc:	f44f 2100 	mov.w	r1, #524288	; 0x80000
 23ff6e0:	fa41 f300 	asr.w	r3, r1, r0
 23ff6e4:	e7ee      	b.n	23ff6c4 <__ulp+0x18>
 23ff6e6:	f1a0 0114 	sub.w	r1, r0, #20
 23ff6ea:	291e      	cmp	r1, #30
 23ff6ec:	bfd6      	itet	le
 23ff6ee:	f04f 4000 	movle.w	r0, #2147483648	; 0x80000000
 23ff6f2:	2101      	movgt	r1, #1
 23ff6f4:	fa20 f101 	lsrle.w	r1, r0, r1
 23ff6f8:	460a      	mov	r2, r1
 23ff6fa:	e7e3      	b.n	23ff6c4 <__ulp+0x18>
 23ff6fc:	7ff00000 	.word	0x7ff00000

023ff700 <__b2d>:
 23ff700:	b5f8      	push	{r3, r4, r5, r6, r7, lr}
 23ff702:	6905      	ldr	r5, [r0, #16]
 23ff704:	f100 0714 	add.w	r7, r0, #20
 23ff708:	eb07 0585 	add.w	r5, r7, r5, lsl #2
 23ff70c:	f855 4c04 	ldr.w	r4, [r5, #-4]
 23ff710:	1f2e      	subs	r6, r5, #4
 23ff712:	4620      	mov	r0, r4
 23ff714:	f7ff fd46 	bl	23ff1a4 <__hi0bits>
 23ff718:	f1c0 0320 	rsb	r3, r0, #32
 23ff71c:	280a      	cmp	r0, #10
 23ff71e:	f8df c07c 	ldr.w	ip, [pc, #124]	; 23ff79c <__b2d+0x9c>
 23ff722:	600b      	str	r3, [r1, #0]
 23ff724:	dc15      	bgt.n	23ff752 <__b2d+0x52>
 23ff726:	f1c0 0e0b 	rsb	lr, r0, #11
 23ff72a:	42b7      	cmp	r7, r6
 23ff72c:	f100 0015 	add.w	r0, r0, #21
 23ff730:	fa24 f10e 	lsr.w	r1, r4, lr
 23ff734:	fa04 f000 	lsl.w	r0, r4, r0
 23ff738:	ea41 030c 	orr.w	r3, r1, ip
 23ff73c:	bf34      	ite	cc
 23ff73e:	f855 1c08 	ldrcc.w	r1, [r5, #-8]
 23ff742:	2100      	movcs	r1, #0
 23ff744:	fa21 f10e 	lsr.w	r1, r1, lr
 23ff748:	ea40 0201 	orr.w	r2, r0, r1
 23ff74c:	ec43 2b10 	vmov	d0, r2, r3
 23ff750:	bdf8      	pop	{r3, r4, r5, r6, r7, pc}
 23ff752:	42b7      	cmp	r7, r6
 23ff754:	bf3a      	itte	cc
 23ff756:	f1a5 0608 	subcc.w	r6, r5, #8
 23ff75a:	f855 1c08 	ldrcc.w	r1, [r5, #-8]
 23ff75e:	2100      	movcs	r1, #0
 23ff760:	380b      	subs	r0, #11
 23ff762:	d017      	beq.n	23ff794 <__b2d+0x94>
 23ff764:	f1c0 0c20 	rsb	ip, r0, #32
 23ff768:	fa04 f500 	lsl.w	r5, r4, r0
 23ff76c:	42be      	cmp	r6, r7
 23ff76e:	fa01 f000 	lsl.w	r0, r1, r0
 23ff772:	fa21 f40c 	lsr.w	r4, r1, ip
 23ff776:	ea45 0504 	orr.w	r5, r5, r4
 23ff77a:	bf8c      	ite	hi
 23ff77c:	f856 4c04 	ldrhi.w	r4, [r6, #-4]
 23ff780:	2400      	movls	r4, #0
 23ff782:	f045 537f 	orr.w	r3, r5, #1069547520	; 0x3fc00000
 23ff786:	fa24 f40c 	lsr.w	r4, r4, ip
 23ff78a:	f443 1340 	orr.w	r3, r3, #3145728	; 0x300000
 23ff78e:	ea40 0204 	orr.w	r2, r0, r4
 23ff792:	e7db      	b.n	23ff74c <__b2d+0x4c>
 23ff794:	ea44 030c 	orr.w	r3, r4, ip
 23ff798:	460a      	mov	r2, r1
 23ff79a:	e7d7      	b.n	23ff74c <__b2d+0x4c>
 23ff79c:	3ff00000 	.word	0x3ff00000

023ff7a0 <__d2b>:
 23ff7a0:	e92d 43f7 	stmdb	sp!, {r0, r1, r2, r4, r5, r6, r7, r8, r9, lr}
 23ff7a4:	4689      	mov	r9, r1
 23ff7a6:	2101      	movs	r1, #1
 23ff7a8:	4690      	mov	r8, r2
 23ff7aa:	ec57 6b10 	vmov	r6, r7, d0
 23ff7ae:	f7ff fc05 	bl	23fefbc <_Balloc>
 23ff7b2:	4604      	mov	r4, r0
 23ff7b4:	b930      	cbnz	r0, 23ff7c4 <__d2b+0x24>
 23ff7b6:	4602      	mov	r2, r0
 23ff7b8:	4b25      	ldr	r3, [pc, #148]	; (23ff850 <__d2b+0xb0>)
 23ff7ba:	f240 310a 	movw	r1, #778	; 0x30a
 23ff7be:	4825      	ldr	r0, [pc, #148]	; (23ff854 <__d2b+0xb4>)
 23ff7c0:	f7fd fa7e 	bl	23fccc0 <__assert_func>
 23ff7c4:	f3c7 550a 	ubfx	r5, r7, #20, #11
 23ff7c8:	f3c7 0313 	ubfx	r3, r7, #0, #20
 23ff7cc:	bb35      	cbnz	r5, 23ff81c <__d2b+0x7c>
 23ff7ce:	2e00      	cmp	r6, #0
 23ff7d0:	9301      	str	r3, [sp, #4]
 23ff7d2:	d028      	beq.n	23ff826 <__d2b+0x86>
 23ff7d4:	4668      	mov	r0, sp
 23ff7d6:	9600      	str	r6, [sp, #0]
 23ff7d8:	f7ff fd04 	bl	23ff1e4 <__lo0bits>
 23ff7dc:	9900      	ldr	r1, [sp, #0]
 23ff7de:	b300      	cbz	r0, 23ff822 <__d2b+0x82>
 23ff7e0:	9a01      	ldr	r2, [sp, #4]
 23ff7e2:	f1c0 0320 	rsb	r3, r0, #32
 23ff7e6:	fa02 f303 	lsl.w	r3, r2, r3
 23ff7ea:	40c2      	lsrs	r2, r0
 23ff7ec:	430b      	orrs	r3, r1
 23ff7ee:	9201      	str	r2, [sp, #4]
 23ff7f0:	6163      	str	r3, [r4, #20]
 23ff7f2:	9b01      	ldr	r3, [sp, #4]
 23ff7f4:	2b00      	cmp	r3, #0
 23ff7f6:	61a3      	str	r3, [r4, #24]
 23ff7f8:	bf14      	ite	ne
 23ff7fa:	2202      	movne	r2, #2
 23ff7fc:	2201      	moveq	r2, #1
 23ff7fe:	6122      	str	r2, [r4, #16]
 23ff800:	b1d5      	cbz	r5, 23ff838 <__d2b+0x98>
 23ff802:	f2a5 4533 	subw	r5, r5, #1075	; 0x433
 23ff806:	4405      	add	r5, r0
 23ff808:	f1c0 0035 	rsb	r0, r0, #53	; 0x35
 23ff80c:	f8c9 5000 	str.w	r5, [r9]
 23ff810:	f8c8 0000 	str.w	r0, [r8]
 23ff814:	4620      	mov	r0, r4
 23ff816:	b003      	add	sp, #12
 23ff818:	e8bd 83f0 	ldmia.w	sp!, {r4, r5, r6, r7, r8, r9, pc}
 23ff81c:	f443 1380 	orr.w	r3, r3, #1048576	; 0x100000
 23ff820:	e7d5      	b.n	23ff7ce <__d2b+0x2e>
 23ff822:	6161      	str	r1, [r4, #20]
 23ff824:	e7e5      	b.n	23ff7f2 <__d2b+0x52>
 23ff826:	a801      	add	r0, sp, #4
 23ff828:	f7ff fcdc 	bl	23ff1e4 <__lo0bits>
 23ff82c:	9b01      	ldr	r3, [sp, #4]
 23ff82e:	2201      	movs	r2, #1
 23ff830:	3020      	adds	r0, #32
 23ff832:	6163      	str	r3, [r4, #20]
 23ff834:	6122      	str	r2, [r4, #16]
 23ff836:	e7e3      	b.n	23ff800 <__d2b+0x60>
 23ff838:	f2a0 4032 	subw	r0, r0, #1074	; 0x432
 23ff83c:	eb04 0382 	add.w	r3, r4, r2, lsl #2
 23ff840:	f8c9 0000 	str.w	r0, [r9]
 23ff844:	6918      	ldr	r0, [r3, #16]
 23ff846:	f7ff fcad 	bl	23ff1a4 <__hi0bits>
 23ff84a:	ebc0 1042 	rsb	r0, r0, r2, lsl #5
 23ff84e:	e7df      	b.n	23ff810 <__d2b+0x70>
 23ff850:	023ffdf1 	.word	0x023ffdf1
 23ff854:	023ffe76 	.word	0x023ffe76

023ff858 <__ratio>:
 23ff858:	e92d 4ff7 	stmdb	sp!, {r0, r1, r2, r4, r5, r6, r7, r8, r9, sl, fp, lr}
 23ff85c:	4688      	mov	r8, r1
 23ff85e:	4681      	mov	r9, r0
 23ff860:	4669      	mov	r1, sp
 23ff862:	f7ff ff4d 	bl	23ff700 <__b2d>
 23ff866:	a901      	add	r1, sp, #4
 23ff868:	4640      	mov	r0, r8
 23ff86a:	ec55 4b10 	vmov	r4, r5, d0
 23ff86e:	f7ff ff47 	bl	23ff700 <__b2d>
 23ff872:	f8d9 3010 	ldr.w	r3, [r9, #16]
 23ff876:	f8d8 2010 	ldr.w	r2, [r8, #16]
 23ff87a:	462f      	mov	r7, r5
 23ff87c:	eba3 0c02 	sub.w	ip, r3, r2
 23ff880:	e9dd 3200 	ldrd	r3, r2, [sp]
 23ff884:	ec51 0b10 	vmov	r0, r1, d0
 23ff888:	1a9b      	subs	r3, r3, r2
 23ff88a:	468b      	mov	fp, r1
 23ff88c:	4620      	mov	r0, r4
 23ff88e:	eb03 134c 	add.w	r3, r3, ip, lsl #5
 23ff892:	2b00      	cmp	r3, #0
 23ff894:	bfd5      	itete	le
 23ff896:	460a      	movle	r2, r1
 23ff898:	462a      	movgt	r2, r5
 23ff89a:	ebc3 3303 	rsble	r3, r3, r3, lsl #12
 23ff89e:	eb02 5703 	addgt.w	r7, r2, r3, lsl #20
 23ff8a2:	bfd8      	it	le
 23ff8a4:	eb02 5b03 	addle.w	fp, r2, r3, lsl #20
 23ff8a8:	ee10 2a10 	vmov	r2, s0
 23ff8ac:	4639      	mov	r1, r7
 23ff8ae:	465b      	mov	r3, fp
 23ff8b0:	f7fb ffb4 	bl	23fb81c <__aeabi_ddiv>
 23ff8b4:	ec41 0b10 	vmov	d0, r0, r1
 23ff8b8:	b003      	add	sp, #12
 23ff8ba:	e8bd 8ff0 	ldmia.w	sp!, {r4, r5, r6, r7, r8, r9, sl, fp, pc}

023ff8be <__copybits>:
 23ff8be:	3901      	subs	r1, #1
 23ff8c0:	f102 0314 	add.w	r3, r2, #20
 23ff8c4:	1149      	asrs	r1, r1, #5
 23ff8c6:	b570      	push	{r4, r5, r6, lr}
 23ff8c8:	3101      	adds	r1, #1
 23ff8ca:	6914      	ldr	r4, [r2, #16]
 23ff8cc:	1f05      	subs	r5, r0, #4
 23ff8ce:	eb00 0181 	add.w	r1, r0, r1, lsl #2
 23ff8d2:	eb03 0484 	add.w	r4, r3, r4, lsl #2
 23ff8d6:	42a3      	cmp	r3, r4
 23ff8d8:	d30c      	bcc.n	23ff8f4 <__copybits+0x36>
 23ff8da:	1aa3      	subs	r3, r4, r2
 23ff8dc:	3211      	adds	r2, #17
 23ff8de:	3b11      	subs	r3, #17
 23ff8e0:	f023 0303 	bic.w	r3, r3, #3
 23ff8e4:	42a2      	cmp	r2, r4
 23ff8e6:	bf88      	it	hi
 23ff8e8:	2300      	movhi	r3, #0
 23ff8ea:	4418      	add	r0, r3
 23ff8ec:	2300      	movs	r3, #0
 23ff8ee:	4288      	cmp	r0, r1
 23ff8f0:	d305      	bcc.n	23ff8fe <__copybits+0x40>
 23ff8f2:	bd70      	pop	{r4, r5, r6, pc}
 23ff8f4:	f853 6b04 	ldr.w	r6, [r3], #4
 23ff8f8:	f845 6f04 	str.w	r6, [r5, #4]!
 23ff8fc:	e7eb      	b.n	23ff8d6 <__copybits+0x18>
 23ff8fe:	f840 3b04 	str.w	r3, [r0], #4
 23ff902:	e7f4      	b.n	23ff8ee <__copybits+0x30>

023ff904 <__any_on>:
 23ff904:	f100 0214 	add.w	r2, r0, #20
 23ff908:	114b      	asrs	r3, r1, #5
 23ff90a:	6900      	ldr	r0, [r0, #16]
 23ff90c:	4298      	cmp	r0, r3
 23ff90e:	b510      	push	{r4, lr}
 23ff910:	db11      	blt.n	23ff936 <__any_on+0x32>
 23ff912:	dd0a      	ble.n	23ff92a <__any_on+0x26>
 23ff914:	f011 011f 	ands.w	r1, r1, #31
 23ff918:	d007      	beq.n	23ff92a <__any_on+0x26>
 23ff91a:	f852 4023 	ldr.w	r4, [r2, r3, lsl #2]
 23ff91e:	fa24 f001 	lsr.w	r0, r4, r1
 23ff922:	fa00 f101 	lsl.w	r1, r0, r1
 23ff926:	428c      	cmp	r4, r1
 23ff928:	d10b      	bne.n	23ff942 <__any_on+0x3e>
 23ff92a:	eb02 0383 	add.w	r3, r2, r3, lsl #2
 23ff92e:	4293      	cmp	r3, r2
 23ff930:	d803      	bhi.n	23ff93a <__any_on+0x36>
 23ff932:	2000      	movs	r0, #0
 23ff934:	bd10      	pop	{r4, pc}
 23ff936:	4603      	mov	r3, r0
 23ff938:	e7f7      	b.n	23ff92a <__any_on+0x26>
 23ff93a:	f853 1d04 	ldr.w	r1, [r3, #-4]!
 23ff93e:	2900      	cmp	r1, #0
 23ff940:	d0f5      	beq.n	23ff92e <__any_on+0x2a>
 23ff942:	2001      	movs	r0, #1
 23ff944:	e7f6      	b.n	23ff934 <__any_on+0x30>

023ff946 <_calloc_r>:
 23ff946:	434a      	muls	r2, r1
 23ff948:	b513      	push	{r0, r1, r4, lr}
 23ff94a:	4611      	mov	r1, r2
 23ff94c:	9201      	str	r2, [sp, #4]
 23ff94e:	f7fd f9a9 	bl	23fcca4 <_malloc_r>
 23ff952:	4604      	mov	r4, r0
 23ff954:	b118      	cbz	r0, 23ff95e <_calloc_r+0x18>
 23ff956:	9a01      	ldr	r2, [sp, #4]
 23ff958:	2100      	movs	r1, #0
 23ff95a:	f7fe f93b 	bl	23fdbd4 <memset>
 23ff95e:	4620      	mov	r0, r4
 23ff960:	b002      	add	sp, #8
 23ff962:	bd10      	pop	{r4, pc}
 23ff964:	0000      	movs	r0, r0
	...

023ff968 <nan>:
 23ff968:	ed9f 0b01 	vldr	d0, [pc, #4]	; 23ff970 <nan+0x8>
 23ff96c:	4770      	bx	lr
 23ff96e:	bf00      	nop
 23ff970:	00000000 	.word	0x00000000
 23ff974:	7ff80000 	.word	0x7ff80000

023ff978 <__ascii_wctomb>:
 23ff978:	b149      	cbz	r1, 23ff98e <__ascii_wctomb+0x16>
 23ff97a:	2aff      	cmp	r2, #255	; 0xff
 23ff97c:	bf8d      	iteet	hi
 23ff97e:	238a      	movhi	r3, #138	; 0x8a
 23ff980:	2001      	movls	r0, #1
 23ff982:	700a      	strbls	r2, [r1, #0]
 23ff984:	6003      	strhi	r3, [r0, #0]
 23ff986:	bf88      	it	hi
 23ff988:	f04f 30ff 	movhi.w	r0, #4294967295	; 0xffffffff
 23ff98c:	4770      	bx	lr
 23ff98e:	4608      	mov	r0, r1
 23ff990:	4770      	bx	lr
	...

023ff994 <dynalib_user>:
 23ff994:	bce9 023f bd11 023f bd15 023f 0000 0000     ..?...?...?.....
 23ff9a4:	6f43 6c6f 4800 6165 0074 664f 0066 4552     Cool.Heat.Off.RE
 23ff9b4:	4144 454c 5452 7400 6d65 4370 7400 7261     DALERT.tempC.tar
 23ff9c4:	6567 5474 6d65 0070 6f6d 6564 6300 5f46     getTemp.mode.cF_
 23ff9d4:	6573 4d74 646f 0065 4663 735f 7465 6154     setMode.cF_setTa
 23ff9e4:	6772 7465 6554 706d 5300 7465 7075 6320     rgetTemp.Setup c
 23ff9f4:	6d6f 6c70 7465 2e65 5400 6d65 2070 3a43     omplete..Temp C:
 23ffa04:	0020 616e 006e 6e69 0066 766f 0066 7543      .nan.inf.ovf.Cu
 23ffa14:	7272 6e65 2074 6f6d 6564 203a 5300 4950     rrent mode: .SPI
 23ffa24:	532f 4950 2031 6e69 6574 6672 6361 2065     /SPI1 interface 
 23ffa34:	6f6e 2074 6564 6966 656e 2164 0000 0000     not defined!....
 23ffa44:	6950 6578 206c 7974 6570 6e20 746f 7320     Pixel type not s
 23ffa54:	7075 6f70 7472 6465 0021 0000 6f4e 2074     upported!...Not 
 23ffa64:	6e65 756f 6867 6d20 6d65 726f 2079 7661     enough memory av
 23ffa74:	6961 616c 6c62 2165 0000 0000               ailable!....

023ffa80 <_ZTVN5spark13EthernetClassE>:
	...
 23ffa88:	cdfd 023f cdf3 023f cde9 023f cddf 023f     ..?...?...?...?.
 23ffa98:	cdd3 023f cdc7 023f d00d 023f d015 023f     ..?...?...?...?.
 23ffaa8:	cdbb 023f cdb3 023f cda9 023f cd9f 023f     ..?...?...?...?.
 23ffab8:	d161 023f d045 023f d04d 023f               a.?.E.?.M.?.

023ffac4 <_ZTV7TwoWire>:
	...
 23ffacc:	ce1d 023f ce67 023f ce3f 023f ce1f 023f     ..?.g.?.?.?...?.
 23ffadc:	ce47 023f ce4f 023f ce57 023f ce5f 023f     G.?.O.?.W.?._.?.
 23ffaec:	d369 023f                                   i.?.

023ffaf0 <_ZTV9IPAddress>:
	...
 23ffaf8:	cedd 023f cecd 023f cecf 023f 7061 0070     ..?...?...?.app.

023ffb08 <CSWTCH.165>:
 23ffb08:	af20 1007 af84 1007 af40 1007                .......@...

023ffb14 <_ZTVN5spark12NetworkClassE>:
	...
 23ffb1c:	cfcd 023f cfd7 023f cfe1 023f cfeb 023f     ..?...?...?...?.
 23ffb2c:	cff5 023f d001 023f d00d 023f d015 023f     ..?...?...?...?.
 23ffb3c:	d01d 023f d029 023f d031 023f d03b 023f     ..?.).?.1.?.;.?.
 23ffb4c:	d161 023f d045 023f d04d 023f               a.?.E.?.M.?.

023ffb58 <_ZN12_GLOBAL__N_1L14clock_divisorsE>:
 23ffb58:	0800 1810 2820 3830 5925 252d 2d6d 6425     .... (08%Y-%m-%d
 23ffb68:	2554 3a48 4d25 253a 2553 007a 7361 7463     T%H:%M:%S%z.asct
 23ffb78:	6d69 0065                                   ime.

023ffb7c <_ZTV11USARTSerial>:
	...
 23ffb84:	d505 023f d571 023f d549 023f d189 023f     ..?.q.?.I.?...?.
 23ffb94:	d519 023f d535 023f d527 023f d543 023f     ..?.5.?.'.?.C.?.
 23ffba4:	d369 023f d507 023f d50b 023f               i.?...?...?.

023ffbb0 <_ZTV9USBSerial>:
	...
 23ffbb8:	d5b5 023f d61d 023f d5f3 023f d189 023f     ..?...?...?...?.
 23ffbc8:	d5e5 023f d5b7 023f d5c7 023f d617 023f     ..?...?...?...?.
 23ffbd8:	d369 023f d5d7 023f d5af 023f               i.?...?...?.

023ffbe4 <_ZTVN5spark9WiFiClassE>:
	...
 23ffbec:	d713 023f d709 023f d6ff 023f d6b5 023f     ..?...?...?...?.
 23ffbfc:	d6f3 023f d6e7 023f d00d 023f d015 023f     ..?...?...?...?.
 23ffc0c:	d6db 023f d6d3 023f d6c9 023f d6bf 023f     ..?...?...?...?.
 23ffc1c:	d161 023f d045 023f d04d 023f               a.?.E.?.M.?.

023ffc28 <_ZSt7nothrow>:
 23ffc28:	5200 4545 544e 6d20 6c61 6f6c 2063 7573     .REENT malloc su
 23ffc38:	6363 6565 6564 0064 742f 706d 6a2f 6e65     cceeded./tmp/jen
 23ffc48:	696b 736e 472d 4343 312d 2d30 6970 6570     kins-GCC-10-pipe
 23ffc58:	696c 656e 342d 5f38 3032 3032 3131 3432     line-48_20201124
 23ffc68:	315f 3036 3136 3038 3336 2f39 7273 2f63     _1606180639/src/
 23ffc78:	656e 6c77 6269 6e2f 7765 696c 2f62 696c     newlib/newlib/li
 23ffc88:	6362 732f 6474 696c 2f62 6172 646e 632e     bc/stdlib/rand.c
 23ffc98:	6900 696e 7974 0000                         .inity..

023ffca0 <fpi.1>:
 23ffca0:	0035 0000 fbce ffff 03cb 0000 0001 0000     5...............
 23ffcb0:	0000 0000                                   ....

023ffcb4 <fpinan.0>:
 23ffcb4:	0034 0000 fbce ffff 03cb 0000 0001 0000     4...............
 23ffcc4:	0000 0000                                   ....

023ffcc8 <tinytens>:
 23ffcc8:	89bc 97d8 d2b2 3c9c a733 d5a8 f623 3949     .......<3...#.I9
 23ffcd8:	a73d 44f4 0ffd 32a5 979d cf8c ba08 255b     =..D...2......[%
 23ffce8:	6f43 64ac 0628 1168                         Co.d(.h.

023ffcf0 <_ctype_>:
 23ffcf0:	2000 2020 2020 2020 2020 2828 2828 2028     .         ((((( 
 23ffd00:	2020 2020 2020 2020 2020 2020 2020 2020                     
 23ffd10:	8820 1010 1010 1010 1010 1010 1010 1010      ...............
 23ffd20:	0410 0404 0404 0404 0404 1004 1010 1010     ................
 23ffd30:	1010 4141 4141 4141 0101 0101 0101 0101     ..AAAAAA........
 23ffd40:	0101 0101 0101 0101 0101 0101 1010 1010     ................
 23ffd50:	1010 4242 4242 4242 0202 0202 0202 0202     ..BBBBBB........
 23ffd60:	0202 0202 0202 0202 0202 0202 1010 1010     ................
 23ffd70:	0020 0000 0000 0000 0000 0000 0000 0000      ...............
	...
 23ffdf0:	4200 6c61 6f6c 2063 7573 6363 6565 6564     .Balloc succeede
 23ffe00:	0064 742f 706d 6a2f 6e65 696b 736e 472d     d./tmp/jenkins-G
 23ffe10:	4343 312d 2d30 6970 6570 696c 656e 342d     CC-10-pipeline-4
 23ffe20:	5f38 3032 3032 3131 3432 315f 3036 3136     8_20201124_16061
 23ffe30:	3038 3336 2f39 7273 2f63 656e 6c77 6269     80639/src/newlib
 23ffe40:	6e2f 7765 696c 2f62 696c 6362 732f 6474     /newlib/libc/std
 23ffe50:	696c 2f62 6467 6f74 2d61 6567 6874 7865     lib/gdtoa-gethex
 23ffe60:	632e 0000                                   .c..

023ffe64 <_C_numeric_locale>:
 23ffe64:	f9fb 023f fa05 023f ad6c 1007 4f50 4953     ..?...?.l...POSI
 23ffe74:	0058 742f 706d 6a2f 6e65 696b 736e 472d     X./tmp/jenkins-G
 23ffe84:	4343 312d 2d30 6970 6570 696c 656e 342d     CC-10-pipeline-4
 23ffe94:	5f38 3032 3032 3131 3432 315f 3036 3136     8_20201124_16061
 23ffea4:	3038 3336 2f39 7273 2f63 656e 6c77 6269     80639/src/newlib
 23ffeb4:	6e2f 7765 696c 2f62 696c 6362 732f 6474     /newlib/libc/std
 23ffec4:	696c 2f62 706d 6572 2e63 0063               lib/mprec.c.

023ffed0 <__mprec_bigtens>:
 23ffed0:	8000 37e0 c379 4341 6e17 b505 b8b5 4693     ...7y.AC.n.....F
 23ffee0:	f9f5 e93f 4f03 4d38 1d32 f930 7748 5a82     ..?..O8M2.0.Hw.Z
 23ffef0:	bf3c 7f73 4fdd 7515                         <.s..O.u

023ffef8 <__mprec_tens>:
 23ffef8:	0000 0000 0000 3ff0 0000 0000 0000 4024     .......?......$@
 23fff08:	0000 0000 0000 4059 0000 0000 4000 408f     ......Y@.....@.@
 23fff18:	0000 0000 8800 40c3 0000 0000 6a00 40f8     .......@.....j.@
 23fff28:	0000 0000 8480 412e 0000 0000 12d0 4163     .......A......cA
 23fff38:	0000 0000 d784 4197 0000 0000 cd65 41cd     .......A....e..A
 23fff48:	0000 2000 a05f 4202 0000 e800 4876 4237     ... _..B....vH7B
 23fff58:	0000 a200 1a94 426d 0000 e540 309c 42a2     ......mB..@..0.B
 23fff68:	0000 1e90 bcc4 42d6 0000 2634 6bf5 430c     .......B..4&.k.C
 23fff78:	8000 37e0 c379 4341 a000 85d8 3457 4376     ...7y.AC....W4vC
 23fff88:	c800 674e c16d 43ab 3d00 6091 58e4 43e1     ..Ngm..C.=.`.X.C
 23fff98:	8c40 78b5 af1d 4415 ef50 d6e2 1ae4 444b     @..x...DP.....KD
 23fffa8:	d592 064d f0cf 4480 4af6 c7e1 2d02 44b5     ..M....D.J...-.D
 23fffb8:	9db4 79d9 7843 44ea                         ...yCx.D

023fffc0 <p05.0>:
 23fffc0:	0005 0000 0019 0000 007d 0000               ........}...

023fffcc <link_const_data_end>:
 23fffcc:	023fc0b1 	.word	0x023fc0b1
 23fffd0:	023fcd31 	.word	0x023fcd31
 23fffd4:	023fcd41 	.word	0x023fcd41
 23fffd8:	023fce09 	.word	0x023fce09
 23fffdc:	023fceb1 	.word	0x023fceb1
 23fffe0:	023fcfbd 	.word	0x023fcfbd
 23fffe4:	023fd175 	.word	0x023fd175
 23fffe8:	023fd251 	.word	0x023fd251
 23fffec:	023fd4cd 	.word	0x023fd4cd
 23ffff0:	023fd4f1 	.word	0x023fd4f1
 23ffff4:	023fd71d 	.word	0x023fd71d
